
main_O0.elf:     file format elf32-littleriscv


Disassembly of section .text:

00010094 <exit>:
   10094:	1141                	add	sp,sp,-16
   10096:	4581                	li	a1,0
   10098:	c422                	sw	s0,8(sp)
   1009a:	c606                	sw	ra,12(sp)
   1009c:	842a                	mv	s0,a0
   1009e:	6fd000ef          	jal	10f9a <__call_exitprocs>
   100a2:	f981a783          	lw	a5,-104(gp) # 1d7a8 <__stdio_exit_handler>
   100a6:	c391                	beqz	a5,100aa <exit+0x16>
   100a8:	9782                	jalr	a5
   100aa:	8522                	mv	a0,s0
   100ac:	5b1090ef          	jal	19e5c <_exit>

000100b0 <register_fini>:
   100b0:	00000793          	li	a5,0
   100b4:	c791                	beqz	a5,100c0 <register_fini+0x10>
   100b6:	00001517          	auipc	a0,0x1
   100ba:	d5a50513          	add	a0,a0,-678 # 10e10 <__libc_fini_array>
   100be:	a5e9                	j	10788 <atexit>
   100c0:	8082                	ret

000100c2 <_start>:
   100c2:	0000d197          	auipc	gp,0xd
   100c6:	74e18193          	add	gp,gp,1870 # 1d810 <__global_pointer$>
   100ca:	f7c18513          	add	a0,gp,-132 # 1d78c <__bss_start>
   100ce:	58c18613          	add	a2,gp,1420 # 1dd9c <__BSS_END__>
   100d2:	8e09                	sub	a2,a2,a0
   100d4:	4581                	li	a1,0
   100d6:	58b000ef          	jal	10e60 <memset>
   100da:	00001517          	auipc	a0,0x1
   100de:	d3650513          	add	a0,a0,-714 # 10e10 <__libc_fini_array>
   100e2:	255d                	jal	10788 <atexit>
   100e4:	4c3000ef          	jal	10da6 <__libc_init_array>
   100e8:	4502                	lw	a0,0(sp)
   100ea:	004c                	add	a1,sp,4
   100ec:	4601                	li	a2,0
   100ee:	2b79                	jal	1068c <main>
   100f0:	b755                	j	10094 <exit>

000100f2 <__do_global_dtors_aux>:
   100f2:	1141                	add	sp,sp,-16
   100f4:	c422                	sw	s0,8(sp)
   100f6:	f8018413          	add	s0,gp,-128 # 1d790 <completed.1>
   100fa:	00044783          	lbu	a5,0(s0)
   100fe:	c606                	sw	ra,12(sp)
   10100:	ef99                	bnez	a5,1011e <__do_global_dtors_aux+0x2c>
   10102:	00000793          	li	a5,0
   10106:	cb89                	beqz	a5,10118 <__do_global_dtors_aux+0x26>
   10108:	0000d517          	auipc	a0,0xd
   1010c:	ef850513          	add	a0,a0,-264 # 1d000 <__EH_FRAME_BEGIN__>
   10110:	00000097          	auipc	ra,0x0
   10114:	000000e7          	jalr	zero # 0 <exit-0x10094>
   10118:	4785                	li	a5,1
   1011a:	00f40023          	sb	a5,0(s0)
   1011e:	40b2                	lw	ra,12(sp)
   10120:	4422                	lw	s0,8(sp)
   10122:	0141                	add	sp,sp,16
   10124:	8082                	ret

00010126 <frame_dummy>:
   10126:	00000793          	li	a5,0
   1012a:	cb99                	beqz	a5,10140 <frame_dummy+0x1a>
   1012c:	fdc18593          	add	a1,gp,-36 # 1d7ec <object.0>
   10130:	0000d517          	auipc	a0,0xd
   10134:	ed050513          	add	a0,a0,-304 # 1d000 <__EH_FRAME_BEGIN__>
   10138:	00000317          	auipc	t1,0x0
   1013c:	00000067          	jr	zero # 0 <exit-0x10094>
   10140:	8082                	ret
	...

00010144 <get_cycles>:
   10144:	c80025f3          	rdcycleh	a1
   10148:	c0002573          	rdcycle	a0
   1014c:	c8002673          	rdcycleh	a2
   10150:	fec59ae3          	bne	a1,a2,10144 <get_cycles>
   10154:	00008067          	ret

00010158 <count_leading_zeros>:
   10158:	f7010113          	add	sp,sp,-144
   1015c:	08812623          	sw	s0,140(sp)
   10160:	09212423          	sw	s2,136(sp)
   10164:	09312223          	sw	s3,132(sp)
   10168:	09412023          	sw	s4,128(sp)
   1016c:	07512e23          	sw	s5,124(sp)
   10170:	07612c23          	sw	s6,120(sp)
   10174:	07712a23          	sw	s7,116(sp)
   10178:	07812823          	sw	s8,112(sp)
   1017c:	07912623          	sw	s9,108(sp)
   10180:	07a12423          	sw	s10,104(sp)
   10184:	07b12223          	sw	s11,100(sp)
   10188:	09010413          	add	s0,sp,144
   1018c:	fca42423          	sw	a0,-56(s0)
   10190:	fcb42623          	sw	a1,-52(s0)
   10194:	fcc42783          	lw	a5,-52(s0)
   10198:	01f79713          	sll	a4,a5,0x1f
   1019c:	fc842783          	lw	a5,-56(s0)
   101a0:	0017d613          	srl	a2,a5,0x1
   101a4:	00c76633          	or	a2,a4,a2
   101a8:	fcc42783          	lw	a5,-52(s0)
   101ac:	0017d693          	srl	a3,a5,0x1
   101b0:	fc842783          	lw	a5,-56(s0)
   101b4:	00c7ee33          	or	t3,a5,a2
   101b8:	fcc42783          	lw	a5,-52(s0)
   101bc:	00d7eeb3          	or	t4,a5,a3
   101c0:	fdc42423          	sw	t3,-56(s0)
   101c4:	fdd42623          	sw	t4,-52(s0)
   101c8:	fcc42783          	lw	a5,-52(s0)
   101cc:	01e79713          	sll	a4,a5,0x1e
   101d0:	fc842783          	lw	a5,-56(s0)
   101d4:	0027d813          	srl	a6,a5,0x2
   101d8:	01076833          	or	a6,a4,a6
   101dc:	fcc42783          	lw	a5,-52(s0)
   101e0:	0027d893          	srl	a7,a5,0x2
   101e4:	fc842783          	lw	a5,-56(s0)
   101e8:	0107e7b3          	or	a5,a5,a6
   101ec:	f8f42823          	sw	a5,-112(s0)
   101f0:	fcc42783          	lw	a5,-52(s0)
   101f4:	0117e7b3          	or	a5,a5,a7
   101f8:	f8f42a23          	sw	a5,-108(s0)
   101fc:	f9042783          	lw	a5,-112(s0)
   10200:	f9442803          	lw	a6,-108(s0)
   10204:	fcf42423          	sw	a5,-56(s0)
   10208:	fd042623          	sw	a6,-52(s0)
   1020c:	fcc42783          	lw	a5,-52(s0)
   10210:	01c79713          	sll	a4,a5,0x1c
   10214:	fc842783          	lw	a5,-56(s0)
   10218:	0047d313          	srl	t1,a5,0x4
   1021c:	00676333          	or	t1,a4,t1
   10220:	fcc42783          	lw	a5,-52(s0)
   10224:	0047d393          	srl	t2,a5,0x4
   10228:	fc842783          	lw	a5,-56(s0)
   1022c:	0067e7b3          	or	a5,a5,t1
   10230:	f8f42423          	sw	a5,-120(s0)
   10234:	fcc42783          	lw	a5,-52(s0)
   10238:	0077e7b3          	or	a5,a5,t2
   1023c:	f8f42623          	sw	a5,-116(s0)
   10240:	f8842783          	lw	a5,-120(s0)
   10244:	f8c42803          	lw	a6,-116(s0)
   10248:	fcf42423          	sw	a5,-56(s0)
   1024c:	fd042623          	sw	a6,-52(s0)
   10250:	fcc42783          	lw	a5,-52(s0)
   10254:	01879713          	sll	a4,a5,0x18
   10258:	fc842783          	lw	a5,-56(s0)
   1025c:	0087d913          	srl	s2,a5,0x8
   10260:	01276933          	or	s2,a4,s2
   10264:	fcc42783          	lw	a5,-52(s0)
   10268:	0087d993          	srl	s3,a5,0x8
   1026c:	fc842783          	lw	a5,-56(s0)
   10270:	0127e7b3          	or	a5,a5,s2
   10274:	f8f42023          	sw	a5,-128(s0)
   10278:	fcc42783          	lw	a5,-52(s0)
   1027c:	0137e7b3          	or	a5,a5,s3
   10280:	f8f42223          	sw	a5,-124(s0)
   10284:	f8042783          	lw	a5,-128(s0)
   10288:	f8442803          	lw	a6,-124(s0)
   1028c:	fcf42423          	sw	a5,-56(s0)
   10290:	fd042623          	sw	a6,-52(s0)
   10294:	fcc42783          	lw	a5,-52(s0)
   10298:	01079713          	sll	a4,a5,0x10
   1029c:	fc842783          	lw	a5,-56(s0)
   102a0:	0107d793          	srl	a5,a5,0x10
   102a4:	fcf42023          	sw	a5,-64(s0)
   102a8:	fc042783          	lw	a5,-64(s0)
   102ac:	00f767b3          	or	a5,a4,a5
   102b0:	fcf42023          	sw	a5,-64(s0)
   102b4:	fcc42783          	lw	a5,-52(s0)
   102b8:	0107d793          	srl	a5,a5,0x10
   102bc:	fcf42223          	sw	a5,-60(s0)
   102c0:	fc842783          	lw	a5,-56(s0)
   102c4:	fc042603          	lw	a2,-64(s0)
   102c8:	fc442683          	lw	a3,-60(s0)
   102cc:	00060713          	mv	a4,a2
   102d0:	00e7e7b3          	or	a5,a5,a4
   102d4:	f6f42c23          	sw	a5,-136(s0)
   102d8:	fcc42783          	lw	a5,-52(s0)
   102dc:	00068713          	mv	a4,a3
   102e0:	00e7e7b3          	or	a5,a5,a4
   102e4:	f6f42e23          	sw	a5,-132(s0)
   102e8:	f7842783          	lw	a5,-136(s0)
   102ec:	f7c42803          	lw	a6,-132(s0)
   102f0:	fcf42423          	sw	a5,-56(s0)
   102f4:	fd042623          	sw	a6,-52(s0)
   102f8:	fcc42783          	lw	a5,-52(s0)
   102fc:	0007d793          	srl	a5,a5,0x0
   10300:	faf42c23          	sw	a5,-72(s0)
   10304:	fa042e23          	sw	zero,-68(s0)
   10308:	fc842783          	lw	a5,-56(s0)
   1030c:	fb842603          	lw	a2,-72(s0)
   10310:	fbc42683          	lw	a3,-68(s0)
   10314:	00060713          	mv	a4,a2
   10318:	00e7e7b3          	or	a5,a5,a4
   1031c:	f6f42823          	sw	a5,-144(s0)
   10320:	fcc42783          	lw	a5,-52(s0)
   10324:	00068713          	mv	a4,a3
   10328:	00e7e7b3          	or	a5,a5,a4
   1032c:	f6f42a23          	sw	a5,-140(s0)
   10330:	f7042783          	lw	a5,-144(s0)
   10334:	f7442803          	lw	a6,-140(s0)
   10338:	fcf42423          	sw	a5,-56(s0)
   1033c:	fd042623          	sw	a6,-52(s0)
   10340:	fcc42783          	lw	a5,-52(s0)
   10344:	01f79793          	sll	a5,a5,0x1f
   10348:	fc842703          	lw	a4,-56(s0)
   1034c:	00175d13          	srl	s10,a4,0x1
   10350:	01a7ed33          	or	s10,a5,s10
   10354:	fcc42783          	lw	a5,-52(s0)
   10358:	0017dd93          	srl	s11,a5,0x1
   1035c:	555557b7          	lui	a5,0x55555
   10360:	55578793          	add	a5,a5,1365 # 55555555 <__BSS_END__+0x555377b9>
   10364:	00fd77b3          	and	a5,s10,a5
   10368:	faf42823          	sw	a5,-80(s0)
   1036c:	555557b7          	lui	a5,0x55555
   10370:	55578793          	add	a5,a5,1365 # 55555555 <__BSS_END__+0x555377b9>
   10374:	00fdf7b3          	and	a5,s11,a5
   10378:	faf42a23          	sw	a5,-76(s0)
   1037c:	fc842603          	lw	a2,-56(s0)
   10380:	fcc42683          	lw	a3,-52(s0)
   10384:	fb042803          	lw	a6,-80(s0)
   10388:	fb442883          	lw	a7,-76(s0)
   1038c:	00080593          	mv	a1,a6
   10390:	40b60733          	sub	a4,a2,a1
   10394:	00070593          	mv	a1,a4
   10398:	00b635b3          	sltu	a1,a2,a1
   1039c:	00088513          	mv	a0,a7
   103a0:	40a687b3          	sub	a5,a3,a0
   103a4:	40b786b3          	sub	a3,a5,a1
   103a8:	00068793          	mv	a5,a3
   103ac:	fce42423          	sw	a4,-56(s0)
   103b0:	fcf42623          	sw	a5,-52(s0)
   103b4:	fcc42783          	lw	a5,-52(s0)
   103b8:	01e79793          	sll	a5,a5,0x1e
   103bc:	fc842703          	lw	a4,-56(s0)
   103c0:	00275c13          	srl	s8,a4,0x2
   103c4:	0187ec33          	or	s8,a5,s8
   103c8:	fcc42783          	lw	a5,-52(s0)
   103cc:	0027dc93          	srl	s9,a5,0x2
   103d0:	333337b7          	lui	a5,0x33333
   103d4:	33378793          	add	a5,a5,819 # 33333333 <__BSS_END__+0x33315597>
   103d8:	00fc77b3          	and	a5,s8,a5
   103dc:	faf42423          	sw	a5,-88(s0)
   103e0:	333337b7          	lui	a5,0x33333
   103e4:	33378793          	add	a5,a5,819 # 33333333 <__BSS_END__+0x33315597>
   103e8:	00fcf7b3          	and	a5,s9,a5
   103ec:	faf42623          	sw	a5,-84(s0)
   103f0:	fc842703          	lw	a4,-56(s0)
   103f4:	333337b7          	lui	a5,0x33333
   103f8:	33378793          	add	a5,a5,819 # 33333333 <__BSS_END__+0x33315597>
   103fc:	00f777b3          	and	a5,a4,a5
   10400:	faf42023          	sw	a5,-96(s0)
   10404:	fcc42703          	lw	a4,-52(s0)
   10408:	333337b7          	lui	a5,0x33333
   1040c:	33378793          	add	a5,a5,819 # 33333333 <__BSS_END__+0x33315597>
   10410:	00f777b3          	and	a5,a4,a5
   10414:	faf42223          	sw	a5,-92(s0)
   10418:	fa842503          	lw	a0,-88(s0)
   1041c:	fac42583          	lw	a1,-84(s0)
   10420:	00050693          	mv	a3,a0
   10424:	fa042803          	lw	a6,-96(s0)
   10428:	fa442883          	lw	a7,-92(s0)
   1042c:	00080613          	mv	a2,a6
   10430:	00c68733          	add	a4,a3,a2
   10434:	00070693          	mv	a3,a4
   10438:	00050613          	mv	a2,a0
   1043c:	00c6b6b3          	sltu	a3,a3,a2
   10440:	00058613          	mv	a2,a1
   10444:	00088593          	mv	a1,a7
   10448:	00b607b3          	add	a5,a2,a1
   1044c:	00f686b3          	add	a3,a3,a5
   10450:	00068793          	mv	a5,a3
   10454:	fce42423          	sw	a4,-56(s0)
   10458:	fcf42623          	sw	a5,-52(s0)
   1045c:	fcc42783          	lw	a5,-52(s0)
   10460:	01c79793          	sll	a5,a5,0x1c
   10464:	fc842703          	lw	a4,-56(s0)
   10468:	00475f13          	srl	t5,a4,0x4
   1046c:	01e7ef33          	or	t5,a5,t5
   10470:	fcc42783          	lw	a5,-52(s0)
   10474:	0047df93          	srl	t6,a5,0x4
   10478:	fc842603          	lw	a2,-56(s0)
   1047c:	fcc42683          	lw	a3,-52(s0)
   10480:	00cf0733          	add	a4,t5,a2
   10484:	00070593          	mv	a1,a4
   10488:	01e5b5b3          	sltu	a1,a1,t5
   1048c:	00df87b3          	add	a5,t6,a3
   10490:	00f586b3          	add	a3,a1,a5
   10494:	00068793          	mv	a5,a3
   10498:	0f0f16b7          	lui	a3,0xf0f1
   1049c:	f0f68693          	add	a3,a3,-241 # f0f0f0f <__BSS_END__+0xf0d3173>
   104a0:	00d776b3          	and	a3,a4,a3
   104a4:	fcd42423          	sw	a3,-56(s0)
   104a8:	0f0f16b7          	lui	a3,0xf0f1
   104ac:	f0f68693          	add	a3,a3,-241 # f0f0f0f <__BSS_END__+0xf0d3173>
   104b0:	00d7f7b3          	and	a5,a5,a3
   104b4:	fcf42623          	sw	a5,-52(s0)
   104b8:	fcc42783          	lw	a5,-52(s0)
   104bc:	01879793          	sll	a5,a5,0x18
   104c0:	fc842703          	lw	a4,-56(s0)
   104c4:	00875b13          	srl	s6,a4,0x8
   104c8:	0167eb33          	or	s6,a5,s6
   104cc:	fcc42783          	lw	a5,-52(s0)
   104d0:	0087db93          	srl	s7,a5,0x8
   104d4:	fc842603          	lw	a2,-56(s0)
   104d8:	fcc42683          	lw	a3,-52(s0)
   104dc:	01660733          	add	a4,a2,s6
   104e0:	00070593          	mv	a1,a4
   104e4:	00c5b5b3          	sltu	a1,a1,a2
   104e8:	017687b3          	add	a5,a3,s7
   104ec:	00f586b3          	add	a3,a1,a5
   104f0:	00068793          	mv	a5,a3
   104f4:	fce42423          	sw	a4,-56(s0)
   104f8:	fcf42623          	sw	a5,-52(s0)
   104fc:	fcc42783          	lw	a5,-52(s0)
   10500:	01079793          	sll	a5,a5,0x10
   10504:	fc842703          	lw	a4,-56(s0)
   10508:	01075a13          	srl	s4,a4,0x10
   1050c:	0147ea33          	or	s4,a5,s4
   10510:	fcc42783          	lw	a5,-52(s0)
   10514:	0107da93          	srl	s5,a5,0x10
   10518:	fc842603          	lw	a2,-56(s0)
   1051c:	fcc42683          	lw	a3,-52(s0)
   10520:	01460733          	add	a4,a2,s4
   10524:	00070593          	mv	a1,a4
   10528:	00c5b5b3          	sltu	a1,a1,a2
   1052c:	015687b3          	add	a5,a3,s5
   10530:	00f586b3          	add	a3,a1,a5
   10534:	00068793          	mv	a5,a3
   10538:	fce42423          	sw	a4,-56(s0)
   1053c:	fcf42623          	sw	a5,-52(s0)
   10540:	fcc42783          	lw	a5,-52(s0)
   10544:	0007d793          	srl	a5,a5,0x0
   10548:	f8f42c23          	sw	a5,-104(s0)
   1054c:	f8042e23          	sw	zero,-100(s0)
   10550:	fc842603          	lw	a2,-56(s0)
   10554:	fcc42683          	lw	a3,-52(s0)
   10558:	f9842803          	lw	a6,-104(s0)
   1055c:	f9c42883          	lw	a7,-100(s0)
   10560:	00080593          	mv	a1,a6
   10564:	00b60733          	add	a4,a2,a1
   10568:	00070593          	mv	a1,a4
   1056c:	00c5b5b3          	sltu	a1,a1,a2
   10570:	00088513          	mv	a0,a7
   10574:	00a687b3          	add	a5,a3,a0
   10578:	00f586b3          	add	a3,a1,a5
   1057c:	00068793          	mv	a5,a3
   10580:	fce42423          	sw	a4,-56(s0)
   10584:	fcf42623          	sw	a5,-52(s0)
   10588:	fc845783          	lhu	a5,-56(s0)
   1058c:	07f7f793          	and	a5,a5,127
   10590:	01079793          	sll	a5,a5,0x10
   10594:	0107d793          	srl	a5,a5,0x10
   10598:	04000713          	li	a4,64
   1059c:	40f707b3          	sub	a5,a4,a5
   105a0:	01079793          	sll	a5,a5,0x10
   105a4:	0107d793          	srl	a5,a5,0x10
   105a8:	00078513          	mv	a0,a5
   105ac:	08c12403          	lw	s0,140(sp)
   105b0:	08812903          	lw	s2,136(sp)
   105b4:	08412983          	lw	s3,132(sp)
   105b8:	08012a03          	lw	s4,128(sp)
   105bc:	07c12a83          	lw	s5,124(sp)
   105c0:	07812b03          	lw	s6,120(sp)
   105c4:	07412b83          	lw	s7,116(sp)
   105c8:	07012c03          	lw	s8,112(sp)
   105cc:	06c12c83          	lw	s9,108(sp)
   105d0:	06812d03          	lw	s10,104(sp)
   105d4:	06412d83          	lw	s11,100(sp)
   105d8:	09010113          	add	sp,sp,144
   105dc:	00008067          	ret

000105e0 <predict_if_mul_overflow>:
   105e0:	fd010113          	add	sp,sp,-48
   105e4:	02112623          	sw	ra,44(sp)
   105e8:	02812423          	sw	s0,40(sp)
   105ec:	03010413          	add	s0,sp,48
   105f0:	fca42e23          	sw	a0,-36(s0)
   105f4:	fcb42c23          	sw	a1,-40(s0)
   105f8:	fdc42783          	lw	a5,-36(s0)
   105fc:	0007a703          	lw	a4,0(a5)
   10600:	0047a783          	lw	a5,4(a5)
   10604:	00070513          	mv	a0,a4
   10608:	00078593          	mv	a1,a5
   1060c:	b4dff0ef          	jal	10158 <count_leading_zeros>
   10610:	00050793          	mv	a5,a0
   10614:	00078713          	mv	a4,a5
   10618:	03f00793          	li	a5,63
   1061c:	40e787b3          	sub	a5,a5,a4
   10620:	fef42623          	sw	a5,-20(s0)
   10624:	fd842783          	lw	a5,-40(s0)
   10628:	0007a703          	lw	a4,0(a5)
   1062c:	0047a783          	lw	a5,4(a5)
   10630:	00070513          	mv	a0,a4
   10634:	00078593          	mv	a1,a5
   10638:	b21ff0ef          	jal	10158 <count_leading_zeros>
   1063c:	00050793          	mv	a5,a0
   10640:	00078713          	mv	a4,a5
   10644:	03f00793          	li	a5,63
   10648:	40e787b3          	sub	a5,a5,a4
   1064c:	fef42423          	sw	a5,-24(s0)
   10650:	fec42783          	lw	a5,-20(s0)
   10654:	00178713          	add	a4,a5,1
   10658:	fe842783          	lw	a5,-24(s0)
   1065c:	00178793          	add	a5,a5,1
   10660:	00f70733          	add	a4,a4,a5
   10664:	03f00793          	li	a5,63
   10668:	00e7d663          	bge	a5,a4,10674 <predict_if_mul_overflow+0x94>
   1066c:	00100793          	li	a5,1
   10670:	0080006f          	j	10678 <predict_if_mul_overflow+0x98>
   10674:	00000793          	li	a5,0
   10678:	00078513          	mv	a0,a5
   1067c:	02c12083          	lw	ra,44(sp)
   10680:	02812403          	lw	s0,40(sp)
   10684:	03010113          	add	sp,sp,48
   10688:	00008067          	ret

0001068c <main>:
   1068c:	fe010113          	add	sp,sp,-32
   10690:	00112e23          	sw	ra,28(sp)
   10694:	00812c23          	sw	s0,24(sp)
   10698:	02010413          	add	s0,sp,32
   1069c:	aa9ff0ef          	jal	10144 <get_cycles>
   106a0:	fea42423          	sw	a0,-24(s0)
   106a4:	feb42623          	sw	a1,-20(s0)
   106a8:	f9018593          	add	a1,gp,-112 # 1d7a0 <a_x1>
   106ac:	f8818513          	add	a0,gp,-120 # 1d798 <a_x0>
   106b0:	f31ff0ef          	jal	105e0 <predict_if_mul_overflow>
   106b4:	00050793          	mv	a5,a0
   106b8:	00078593          	mv	a1,a5
   106bc:	0001c7b7          	lui	a5,0x1c
   106c0:	01878513          	add	a0,a5,24 # 1c018 <__clzsi2+0x72>
   106c4:	4a0000ef          	jal	10b64 <printf>
   106c8:	f4018593          	add	a1,gp,-192 # 1d750 <b_x1>
   106cc:	f3818513          	add	a0,gp,-200 # 1d748 <b_x0>
   106d0:	f11ff0ef          	jal	105e0 <predict_if_mul_overflow>
   106d4:	00050793          	mv	a5,a0
   106d8:	00078593          	mv	a1,a5
   106dc:	0001c7b7          	lui	a5,0x1c
   106e0:	01878513          	add	a0,a5,24 # 1c018 <__clzsi2+0x72>
   106e4:	480000ef          	jal	10b64 <printf>
   106e8:	f5018593          	add	a1,gp,-176 # 1d760 <c_x1>
   106ec:	f4818513          	add	a0,gp,-184 # 1d758 <c_x0>
   106f0:	ef1ff0ef          	jal	105e0 <predict_if_mul_overflow>
   106f4:	00050793          	mv	a5,a0
   106f8:	00078593          	mv	a1,a5
   106fc:	0001c7b7          	lui	a5,0x1c
   10700:	01878513          	add	a0,a5,24 # 1c018 <__clzsi2+0x72>
   10704:	460000ef          	jal	10b64 <printf>
   10708:	f6018593          	add	a1,gp,-160 # 1d770 <d_x1>
   1070c:	f5818513          	add	a0,gp,-168 # 1d768 <d_x0>
   10710:	ed1ff0ef          	jal	105e0 <predict_if_mul_overflow>
   10714:	00050793          	mv	a5,a0
   10718:	00078593          	mv	a1,a5
   1071c:	0001c7b7          	lui	a5,0x1c
   10720:	01878513          	add	a0,a5,24 # 1c018 <__clzsi2+0x72>
   10724:	440000ef          	jal	10b64 <printf>
   10728:	a1dff0ef          	jal	10144 <get_cycles>
   1072c:	00050613          	mv	a2,a0
   10730:	00058693          	mv	a3,a1
   10734:	fe842503          	lw	a0,-24(s0)
   10738:	fec42583          	lw	a1,-20(s0)
   1073c:	40a60733          	sub	a4,a2,a0
   10740:	00070813          	mv	a6,a4
   10744:	01063833          	sltu	a6,a2,a6
   10748:	40b687b3          	sub	a5,a3,a1
   1074c:	410786b3          	sub	a3,a5,a6
   10750:	00068793          	mv	a5,a3
   10754:	fee42023          	sw	a4,-32(s0)
   10758:	fef42223          	sw	a5,-28(s0)
   1075c:	fe042783          	lw	a5,-32(s0)
   10760:	00078593          	mv	a1,a5
   10764:	0001c7b7          	lui	a5,0x1c
   10768:	01c78513          	add	a0,a5,28 # 1c01c <__clzsi2+0x76>
   1076c:	3f8000ef          	jal	10b64 <printf>
   10770:	00000793          	li	a5,0
   10774:	00078513          	mv	a0,a5
   10778:	01c12083          	lw	ra,28(sp)
   1077c:	01812403          	lw	s0,24(sp)
   10780:	02010113          	add	sp,sp,32
   10784:	00008067          	ret

00010788 <atexit>:
   10788:	85aa                	mv	a1,a0
   1078a:	4681                	li	a3,0
   1078c:	4601                	li	a2,0
   1078e:	4501                	li	a0,0
   10790:	7780006f          	j	10f08 <__register_exitproc>

00010794 <stdio_exit_handler>:
   10794:	0000d617          	auipc	a2,0xd
   10798:	87c60613          	add	a2,a2,-1924 # 1d010 <__sglue>
   1079c:	00004597          	auipc	a1,0x4
   107a0:	4b858593          	add	a1,a1,1208 # 14c54 <_fclose_r>
   107a4:	0000d517          	auipc	a0,0xd
   107a8:	87c50513          	add	a0,a0,-1924 # 1d020 <_impure_data>
   107ac:	a615                	j	10ad0 <_fwalk_sglue>

000107ae <cleanup_stdio>:
   107ae:	414c                	lw	a1,4(a0)
   107b0:	1141                	add	sp,sp,-16
   107b2:	c422                	sw	s0,8(sp)
   107b4:	c606                	sw	ra,12(sp)
   107b6:	ff418793          	add	a5,gp,-12 # 1d804 <__sf>
   107ba:	842a                	mv	s0,a0
   107bc:	00f58463          	beq	a1,a5,107c4 <cleanup_stdio+0x16>
   107c0:	494040ef          	jal	14c54 <_fclose_r>
   107c4:	440c                	lw	a1,8(s0)
   107c6:	05c18793          	add	a5,gp,92 # 1d86c <__global_pointer$+0x5c>
   107ca:	00f58563          	beq	a1,a5,107d4 <cleanup_stdio+0x26>
   107ce:	8522                	mv	a0,s0
   107d0:	484040ef          	jal	14c54 <_fclose_r>
   107d4:	444c                	lw	a1,12(s0)
   107d6:	0c418793          	add	a5,gp,196 # 1d8d4 <__global_pointer$+0xc4>
   107da:	00f58863          	beq	a1,a5,107ea <cleanup_stdio+0x3c>
   107de:	8522                	mv	a0,s0
   107e0:	4422                	lw	s0,8(sp)
   107e2:	40b2                	lw	ra,12(sp)
   107e4:	0141                	add	sp,sp,16
   107e6:	46e0406f          	j	14c54 <_fclose_r>
   107ea:	40b2                	lw	ra,12(sp)
   107ec:	4422                	lw	s0,8(sp)
   107ee:	0141                	add	sp,sp,16
   107f0:	8082                	ret

000107f2 <__fp_lock>:
   107f2:	51fc                	lw	a5,100(a1)
   107f4:	8b85                	and	a5,a5,1
   107f6:	e791                	bnez	a5,10802 <__fp_lock+0x10>
   107f8:	00c5d783          	lhu	a5,12(a1)
   107fc:	2007f793          	and	a5,a5,512
   10800:	c399                	beqz	a5,10806 <__fp_lock+0x14>
   10802:	4501                	li	a0,0
   10804:	8082                	ret
   10806:	4da8                	lw	a0,88(a1)
   10808:	1141                	add	sp,sp,-16
   1080a:	c606                	sw	ra,12(sp)
   1080c:	2599                	jal	10e52 <__retarget_lock_acquire_recursive>
   1080e:	40b2                	lw	ra,12(sp)
   10810:	4501                	li	a0,0
   10812:	0141                	add	sp,sp,16
   10814:	8082                	ret

00010816 <__fp_unlock>:
   10816:	51fc                	lw	a5,100(a1)
   10818:	8b85                	and	a5,a5,1
   1081a:	e791                	bnez	a5,10826 <__fp_unlock+0x10>
   1081c:	00c5d783          	lhu	a5,12(a1)
   10820:	2007f793          	and	a5,a5,512
   10824:	c399                	beqz	a5,1082a <__fp_unlock+0x14>
   10826:	4501                	li	a0,0
   10828:	8082                	ret
   1082a:	4da8                	lw	a0,88(a1)
   1082c:	1141                	add	sp,sp,-16
   1082e:	c606                	sw	ra,12(sp)
   10830:	253d                	jal	10e5e <__retarget_lock_release_recursive>
   10832:	40b2                	lw	ra,12(sp)
   10834:	4501                	li	a0,0
   10836:	0141                	add	sp,sp,16
   10838:	8082                	ret

0001083a <global_stdio_init.part.0>:
   1083a:	1101                	add	sp,sp,-32
   1083c:	00000797          	auipc	a5,0x0
   10840:	f5878793          	add	a5,a5,-168 # 10794 <stdio_exit_handler>
   10844:	ce06                	sw	ra,28(sp)
   10846:	cc22                	sw	s0,24(sp)
   10848:	ca26                	sw	s1,20(sp)
   1084a:	ff418413          	add	s0,gp,-12 # 1d804 <__sf>
   1084e:	c84a                	sw	s2,16(sp)
   10850:	c64e                	sw	s3,12(sp)
   10852:	c452                	sw	s4,8(sp)
   10854:	4621                	li	a2,8
   10856:	4581                	li	a1,0
   10858:	f8f1ac23          	sw	a5,-104(gp) # 1d7a8 <__stdio_exit_handler>
   1085c:	05018513          	add	a0,gp,80 # 1d860 <__global_pointer$+0x50>
   10860:	4791                	li	a5,4
   10862:	c45c                	sw	a5,12(s0)
   10864:	00042023          	sw	zero,0(s0)
   10868:	00042223          	sw	zero,4(s0)
   1086c:	00042423          	sw	zero,8(s0)
   10870:	06042223          	sw	zero,100(s0)
   10874:	00042823          	sw	zero,16(s0)
   10878:	00042a23          	sw	zero,20(s0)
   1087c:	00042c23          	sw	zero,24(s0)
   10880:	23c5                	jal	10e60 <memset>
   10882:	00000a17          	auipc	s4,0x0
   10886:	30ea0a13          	add	s4,s4,782 # 10b90 <__sread>
   1088a:	00000997          	auipc	s3,0x0
   1088e:	34098993          	add	s3,s3,832 # 10bca <__swrite>
   10892:	00000917          	auipc	s2,0x0
   10896:	38890913          	add	s2,s2,904 # 10c1a <__sseek>
   1089a:	00000497          	auipc	s1,0x0
   1089e:	3c848493          	add	s1,s1,968 # 10c62 <__sclose>
   108a2:	04c18513          	add	a0,gp,76 # 1d85c <__global_pointer$+0x4c>
   108a6:	03442023          	sw	s4,32(s0)
   108aa:	03342223          	sw	s3,36(s0)
   108ae:	03242423          	sw	s2,40(s0)
   108b2:	d444                	sw	s1,44(s0)
   108b4:	cc40                	sw	s0,28(s0)
   108b6:	2b51                	jal	10e4a <__retarget_lock_init_recursive>
   108b8:	67c1                	lui	a5,0x10
   108ba:	07a5                	add	a5,a5,9 # 10009 <exit-0x8b>
   108bc:	4621                	li	a2,8
   108be:	4581                	li	a1,0
   108c0:	0b818513          	add	a0,gp,184 # 1d8c8 <__global_pointer$+0xb8>
   108c4:	d87c                	sw	a5,116(s0)
   108c6:	06042423          	sw	zero,104(s0)
   108ca:	06042623          	sw	zero,108(s0)
   108ce:	06042823          	sw	zero,112(s0)
   108d2:	0c042623          	sw	zero,204(s0)
   108d6:	06042c23          	sw	zero,120(s0)
   108da:	06042e23          	sw	zero,124(s0)
   108de:	08042023          	sw	zero,128(s0)
   108e2:	2bbd                	jal	10e60 <memset>
   108e4:	05c18793          	add	a5,gp,92 # 1d86c <__global_pointer$+0x5c>
   108e8:	0b418513          	add	a0,gp,180 # 1d8c4 <__global_pointer$+0xb4>
   108ec:	08f42223          	sw	a5,132(s0)
   108f0:	09442423          	sw	s4,136(s0)
   108f4:	09342623          	sw	s3,140(s0)
   108f8:	09242823          	sw	s2,144(s0)
   108fc:	08942a23          	sw	s1,148(s0)
   10900:	23a9                	jal	10e4a <__retarget_lock_init_recursive>
   10902:	000207b7          	lui	a5,0x20
   10906:	07c9                	add	a5,a5,18 # 20012 <__BSS_END__+0x2276>
   10908:	4621                	li	a2,8
   1090a:	4581                	li	a1,0
   1090c:	12018513          	add	a0,gp,288 # 1d930 <__global_pointer$+0x120>
   10910:	0cf42e23          	sw	a5,220(s0)
   10914:	0c042823          	sw	zero,208(s0)
   10918:	0c042a23          	sw	zero,212(s0)
   1091c:	0c042c23          	sw	zero,216(s0)
   10920:	12042a23          	sw	zero,308(s0)
   10924:	0e042023          	sw	zero,224(s0)
   10928:	0e042223          	sw	zero,228(s0)
   1092c:	0e042423          	sw	zero,232(s0)
   10930:	2b05                	jal	10e60 <memset>
   10932:	0c418793          	add	a5,gp,196 # 1d8d4 <__global_pointer$+0xc4>
   10936:	0f442823          	sw	s4,240(s0)
   1093a:	0f342a23          	sw	s3,244(s0)
   1093e:	0f242c23          	sw	s2,248(s0)
   10942:	0e942e23          	sw	s1,252(s0)
   10946:	0ef42623          	sw	a5,236(s0)
   1094a:	4462                	lw	s0,24(sp)
   1094c:	40f2                	lw	ra,28(sp)
   1094e:	44d2                	lw	s1,20(sp)
   10950:	4942                	lw	s2,16(sp)
   10952:	49b2                	lw	s3,12(sp)
   10954:	4a22                	lw	s4,8(sp)
   10956:	11c18513          	add	a0,gp,284 # 1d92c <__global_pointer$+0x11c>
   1095a:	6105                	add	sp,sp,32
   1095c:	a1fd                	j	10e4a <__retarget_lock_init_recursive>

0001095e <__sfp>:
   1095e:	1101                	add	sp,sp,-32
   10960:	c64e                	sw	s3,12(sp)
   10962:	89aa                	mv	s3,a0
   10964:	fbc18513          	add	a0,gp,-68 # 1d7cc <__lock___sfp_recursive_mutex>
   10968:	ce06                	sw	ra,28(sp)
   1096a:	cc22                	sw	s0,24(sp)
   1096c:	ca26                	sw	s1,20(sp)
   1096e:	c84a                	sw	s2,16(sp)
   10970:	21cd                	jal	10e52 <__retarget_lock_acquire_recursive>
   10972:	f981a783          	lw	a5,-104(gp) # 1d7a8 <__stdio_exit_handler>
   10976:	cfc5                	beqz	a5,10a2e <__sfp+0xd0>
   10978:	0000c917          	auipc	s2,0xc
   1097c:	69890913          	add	s2,s2,1688 # 1d010 <__sglue>
   10980:	54fd                	li	s1,-1
   10982:	00492783          	lw	a5,4(s2)
   10986:	00892403          	lw	s0,8(s2)
   1098a:	17fd                	add	a5,a5,-1
   1098c:	0007d763          	bgez	a5,1099a <__sfp+0x3c>
   10990:	a0ad                	j	109fa <__sfp+0x9c>
   10992:	06840413          	add	s0,s0,104
   10996:	06978263          	beq	a5,s1,109fa <__sfp+0x9c>
   1099a:	00c41703          	lh	a4,12(s0)
   1099e:	17fd                	add	a5,a5,-1
   109a0:	fb6d                	bnez	a4,10992 <__sfp+0x34>
   109a2:	77c1                	lui	a5,0xffff0
   109a4:	0785                	add	a5,a5,1 # ffff0001 <__BSS_END__+0xfffd2265>
   109a6:	c45c                	sw	a5,12(s0)
   109a8:	05840513          	add	a0,s0,88
   109ac:	06042223          	sw	zero,100(s0)
   109b0:	2969                	jal	10e4a <__retarget_lock_init_recursive>
   109b2:	fbc18513          	add	a0,gp,-68 # 1d7cc <__lock___sfp_recursive_mutex>
   109b6:	2165                	jal	10e5e <__retarget_lock_release_recursive>
   109b8:	4621                	li	a2,8
   109ba:	00042023          	sw	zero,0(s0)
   109be:	00042423          	sw	zero,8(s0)
   109c2:	00042223          	sw	zero,4(s0)
   109c6:	00042823          	sw	zero,16(s0)
   109ca:	00042a23          	sw	zero,20(s0)
   109ce:	00042c23          	sw	zero,24(s0)
   109d2:	4581                	li	a1,0
   109d4:	05c40513          	add	a0,s0,92
   109d8:	2161                	jal	10e60 <memset>
   109da:	02042823          	sw	zero,48(s0)
   109de:	02042a23          	sw	zero,52(s0)
   109e2:	04042223          	sw	zero,68(s0)
   109e6:	04042423          	sw	zero,72(s0)
   109ea:	40f2                	lw	ra,28(sp)
   109ec:	8522                	mv	a0,s0
   109ee:	4462                	lw	s0,24(sp)
   109f0:	44d2                	lw	s1,20(sp)
   109f2:	4942                	lw	s2,16(sp)
   109f4:	49b2                	lw	s3,12(sp)
   109f6:	6105                	add	sp,sp,32
   109f8:	8082                	ret
   109fa:	00092403          	lw	s0,0(s2)
   109fe:	c019                	beqz	s0,10a04 <__sfp+0xa6>
   10a00:	8922                	mv	s2,s0
   10a02:	b741                	j	10982 <__sfp+0x24>
   10a04:	1ac00593          	li	a1,428
   10a08:	854e                	mv	a0,s3
   10a0a:	16b000ef          	jal	11374 <_malloc_r>
   10a0e:	842a                	mv	s0,a0
   10a10:	c10d                	beqz	a0,10a32 <__sfp+0xd4>
   10a12:	0531                	add	a0,a0,12
   10a14:	4791                	li	a5,4
   10a16:	00042023          	sw	zero,0(s0)
   10a1a:	c05c                	sw	a5,4(s0)
   10a1c:	c408                	sw	a0,8(s0)
   10a1e:	1a000613          	li	a2,416
   10a22:	4581                	li	a1,0
   10a24:	2935                	jal	10e60 <memset>
   10a26:	00892023          	sw	s0,0(s2)
   10a2a:	8922                	mv	s2,s0
   10a2c:	bf99                	j	10982 <__sfp+0x24>
   10a2e:	3531                	jal	1083a <global_stdio_init.part.0>
   10a30:	b7a1                	j	10978 <__sfp+0x1a>
   10a32:	00092023          	sw	zero,0(s2)
   10a36:	fbc18513          	add	a0,gp,-68 # 1d7cc <__lock___sfp_recursive_mutex>
   10a3a:	2115                	jal	10e5e <__retarget_lock_release_recursive>
   10a3c:	47b1                	li	a5,12
   10a3e:	00f9a023          	sw	a5,0(s3)
   10a42:	b765                	j	109ea <__sfp+0x8c>

00010a44 <__sinit>:
   10a44:	1141                	add	sp,sp,-16
   10a46:	c422                	sw	s0,8(sp)
   10a48:	842a                	mv	s0,a0
   10a4a:	fbc18513          	add	a0,gp,-68 # 1d7cc <__lock___sfp_recursive_mutex>
   10a4e:	c606                	sw	ra,12(sp)
   10a50:	2109                	jal	10e52 <__retarget_lock_acquire_recursive>
   10a52:	585c                	lw	a5,52(s0)
   10a54:	eb89                	bnez	a5,10a66 <__sinit+0x22>
   10a56:	00000797          	auipc	a5,0x0
   10a5a:	d5878793          	add	a5,a5,-680 # 107ae <cleanup_stdio>
   10a5e:	d85c                	sw	a5,52(s0)
   10a60:	f981a783          	lw	a5,-104(gp) # 1d7a8 <__stdio_exit_handler>
   10a64:	c799                	beqz	a5,10a72 <__sinit+0x2e>
   10a66:	4422                	lw	s0,8(sp)
   10a68:	40b2                	lw	ra,12(sp)
   10a6a:	fbc18513          	add	a0,gp,-68 # 1d7cc <__lock___sfp_recursive_mutex>
   10a6e:	0141                	add	sp,sp,16
   10a70:	a6fd                	j	10e5e <__retarget_lock_release_recursive>
   10a72:	33e1                	jal	1083a <global_stdio_init.part.0>
   10a74:	4422                	lw	s0,8(sp)
   10a76:	40b2                	lw	ra,12(sp)
   10a78:	fbc18513          	add	a0,gp,-68 # 1d7cc <__lock___sfp_recursive_mutex>
   10a7c:	0141                	add	sp,sp,16
   10a7e:	a6c5                	j	10e5e <__retarget_lock_release_recursive>

00010a80 <__sfp_lock_acquire>:
   10a80:	fbc18513          	add	a0,gp,-68 # 1d7cc <__lock___sfp_recursive_mutex>
   10a84:	a6f9                	j	10e52 <__retarget_lock_acquire_recursive>

00010a86 <__sfp_lock_release>:
   10a86:	fbc18513          	add	a0,gp,-68 # 1d7cc <__lock___sfp_recursive_mutex>
   10a8a:	aed1                	j	10e5e <__retarget_lock_release_recursive>

00010a8c <__fp_lock_all>:
   10a8c:	1141                	add	sp,sp,-16
   10a8e:	fbc18513          	add	a0,gp,-68 # 1d7cc <__lock___sfp_recursive_mutex>
   10a92:	c606                	sw	ra,12(sp)
   10a94:	2e7d                	jal	10e52 <__retarget_lock_acquire_recursive>
   10a96:	40b2                	lw	ra,12(sp)
   10a98:	0000c617          	auipc	a2,0xc
   10a9c:	57860613          	add	a2,a2,1400 # 1d010 <__sglue>
   10aa0:	00000597          	auipc	a1,0x0
   10aa4:	d5258593          	add	a1,a1,-686 # 107f2 <__fp_lock>
   10aa8:	4501                	li	a0,0
   10aaa:	0141                	add	sp,sp,16
   10aac:	a015                	j	10ad0 <_fwalk_sglue>

00010aae <__fp_unlock_all>:
   10aae:	1141                	add	sp,sp,-16
   10ab0:	0000c617          	auipc	a2,0xc
   10ab4:	56060613          	add	a2,a2,1376 # 1d010 <__sglue>
   10ab8:	00000597          	auipc	a1,0x0
   10abc:	d5e58593          	add	a1,a1,-674 # 10816 <__fp_unlock>
   10ac0:	4501                	li	a0,0
   10ac2:	c606                	sw	ra,12(sp)
   10ac4:	2031                	jal	10ad0 <_fwalk_sglue>
   10ac6:	40b2                	lw	ra,12(sp)
   10ac8:	fbc18513          	add	a0,gp,-68 # 1d7cc <__lock___sfp_recursive_mutex>
   10acc:	0141                	add	sp,sp,16
   10ace:	ae41                	j	10e5e <__retarget_lock_release_recursive>

00010ad0 <_fwalk_sglue>:
   10ad0:	7179                	add	sp,sp,-48
   10ad2:	d04a                	sw	s2,32(sp)
   10ad4:	ce4e                	sw	s3,28(sp)
   10ad6:	cc52                	sw	s4,24(sp)
   10ad8:	ca56                	sw	s5,20(sp)
   10ada:	c85a                	sw	s6,16(sp)
   10adc:	c65e                	sw	s7,12(sp)
   10ade:	d606                	sw	ra,44(sp)
   10ae0:	d422                	sw	s0,40(sp)
   10ae2:	d226                	sw	s1,36(sp)
   10ae4:	8b2a                	mv	s6,a0
   10ae6:	8bae                	mv	s7,a1
   10ae8:	8ab2                	mv	s5,a2
   10aea:	4a01                	li	s4,0
   10aec:	4985                	li	s3,1
   10aee:	597d                	li	s2,-1
   10af0:	004aa483          	lw	s1,4(s5)
   10af4:	008aa403          	lw	s0,8(s5)
   10af8:	14fd                	add	s1,s1,-1
   10afa:	0204c463          	bltz	s1,10b22 <_fwalk_sglue+0x52>
   10afe:	00c45783          	lhu	a5,12(s0)
   10b02:	00f9fb63          	bgeu	s3,a5,10b18 <_fwalk_sglue+0x48>
   10b06:	00e41783          	lh	a5,14(s0)
   10b0a:	85a2                	mv	a1,s0
   10b0c:	855a                	mv	a0,s6
   10b0e:	01278563          	beq	a5,s2,10b18 <_fwalk_sglue+0x48>
   10b12:	9b82                	jalr	s7
   10b14:	00aa6a33          	or	s4,s4,a0
   10b18:	14fd                	add	s1,s1,-1
   10b1a:	06840413          	add	s0,s0,104
   10b1e:	ff2490e3          	bne	s1,s2,10afe <_fwalk_sglue+0x2e>
   10b22:	000aaa83          	lw	s5,0(s5)
   10b26:	fc0a95e3          	bnez	s5,10af0 <_fwalk_sglue+0x20>
   10b2a:	50b2                	lw	ra,44(sp)
   10b2c:	5422                	lw	s0,40(sp)
   10b2e:	5492                	lw	s1,36(sp)
   10b30:	5902                	lw	s2,32(sp)
   10b32:	49f2                	lw	s3,28(sp)
   10b34:	4ad2                	lw	s5,20(sp)
   10b36:	4b42                	lw	s6,16(sp)
   10b38:	4bb2                	lw	s7,12(sp)
   10b3a:	8552                	mv	a0,s4
   10b3c:	4a62                	lw	s4,24(sp)
   10b3e:	6145                	add	sp,sp,48
   10b40:	8082                	ret

00010b42 <_printf_r>:
   10b42:	7139                	add	sp,sp,-64
   10b44:	d432                	sw	a2,40(sp)
   10b46:	d636                	sw	a3,44(sp)
   10b48:	d83a                	sw	a4,48(sp)
   10b4a:	da3e                	sw	a5,52(sp)
   10b4c:	dc42                	sw	a6,56(sp)
   10b4e:	de46                	sw	a7,60(sp)
   10b50:	862e                	mv	a2,a1
   10b52:	450c                	lw	a1,8(a0)
   10b54:	1034                	add	a3,sp,40
   10b56:	ce06                	sw	ra,28(sp)
   10b58:	c636                	sw	a3,12(sp)
   10b5a:	5d9000ef          	jal	11932 <_vfprintf_r>
   10b5e:	40f2                	lw	ra,28(sp)
   10b60:	6121                	add	sp,sp,64
   10b62:	8082                	ret

00010b64 <printf>:
   10b64:	7139                	add	sp,sp,-64
   10b66:	d432                	sw	a2,40(sp)
   10b68:	d636                	sw	a3,44(sp)
   10b6a:	f681a303          	lw	t1,-152(gp) # 1d778 <_impure_ptr>
   10b6e:	d22e                	sw	a1,36(sp)
   10b70:	d83a                	sw	a4,48(sp)
   10b72:	da3e                	sw	a5,52(sp)
   10b74:	dc42                	sw	a6,56(sp)
   10b76:	de46                	sw	a7,60(sp)
   10b78:	00832583          	lw	a1,8(t1) # 10140 <frame_dummy+0x1a>
   10b7c:	1054                	add	a3,sp,36
   10b7e:	862a                	mv	a2,a0
   10b80:	851a                	mv	a0,t1
   10b82:	ce06                	sw	ra,28(sp)
   10b84:	c636                	sw	a3,12(sp)
   10b86:	5ad000ef          	jal	11932 <_vfprintf_r>
   10b8a:	40f2                	lw	ra,28(sp)
   10b8c:	6121                	add	sp,sp,64
   10b8e:	8082                	ret

00010b90 <__sread>:
   10b90:	1141                	add	sp,sp,-16
   10b92:	c422                	sw	s0,8(sp)
   10b94:	842e                	mv	s0,a1
   10b96:	00e59583          	lh	a1,14(a1)
   10b9a:	c606                	sw	ra,12(sp)
   10b9c:	2a79                	jal	10d3a <_read_r>
   10b9e:	00054963          	bltz	a0,10bb0 <__sread+0x20>
   10ba2:	483c                	lw	a5,80(s0)
   10ba4:	40b2                	lw	ra,12(sp)
   10ba6:	97aa                	add	a5,a5,a0
   10ba8:	c83c                	sw	a5,80(s0)
   10baa:	4422                	lw	s0,8(sp)
   10bac:	0141                	add	sp,sp,16
   10bae:	8082                	ret
   10bb0:	00c45783          	lhu	a5,12(s0)
   10bb4:	777d                	lui	a4,0xfffff
   10bb6:	177d                	add	a4,a4,-1 # ffffefff <__BSS_END__+0xfffe1263>
   10bb8:	8ff9                	and	a5,a5,a4
   10bba:	40b2                	lw	ra,12(sp)
   10bbc:	00f41623          	sh	a5,12(s0)
   10bc0:	4422                	lw	s0,8(sp)
   10bc2:	0141                	add	sp,sp,16
   10bc4:	8082                	ret

00010bc6 <__seofread>:
   10bc6:	4501                	li	a0,0
   10bc8:	8082                	ret

00010bca <__swrite>:
   10bca:	00c59783          	lh	a5,12(a1)
   10bce:	1101                	add	sp,sp,-32
   10bd0:	cc22                	sw	s0,24(sp)
   10bd2:	ca26                	sw	s1,20(sp)
   10bd4:	c84a                	sw	s2,16(sp)
   10bd6:	c64e                	sw	s3,12(sp)
   10bd8:	ce06                	sw	ra,28(sp)
   10bda:	1007f713          	and	a4,a5,256
   10bde:	842e                	mv	s0,a1
   10be0:	84aa                	mv	s1,a0
   10be2:	8932                	mv	s2,a2
   10be4:	89b6                	mv	s3,a3
   10be6:	e315                	bnez	a4,10c0a <__swrite+0x40>
   10be8:	777d                	lui	a4,0xfffff
   10bea:	177d                	add	a4,a4,-1 # ffffefff <__BSS_END__+0xfffe1263>
   10bec:	8ff9                	and	a5,a5,a4
   10bee:	00e41583          	lh	a1,14(s0)
   10bf2:	00f41623          	sh	a5,12(s0)
   10bf6:	4462                	lw	s0,24(sp)
   10bf8:	40f2                	lw	ra,28(sp)
   10bfa:	86ce                	mv	a3,s3
   10bfc:	864a                	mv	a2,s2
   10bfe:	49b2                	lw	s3,12(sp)
   10c00:	4942                	lw	s2,16(sp)
   10c02:	8526                	mv	a0,s1
   10c04:	44d2                	lw	s1,20(sp)
   10c06:	6105                	add	sp,sp,32
   10c08:	a2a5                	j	10d70 <_write_r>
   10c0a:	00e59583          	lh	a1,14(a1)
   10c0e:	4689                	li	a3,2
   10c10:	4601                	li	a2,0
   10c12:	28cd                	jal	10d04 <_lseek_r>
   10c14:	00c41783          	lh	a5,12(s0)
   10c18:	bfc1                	j	10be8 <__swrite+0x1e>

00010c1a <__sseek>:
   10c1a:	1141                	add	sp,sp,-16
   10c1c:	c422                	sw	s0,8(sp)
   10c1e:	842e                	mv	s0,a1
   10c20:	00e59583          	lh	a1,14(a1)
   10c24:	c606                	sw	ra,12(sp)
   10c26:	28f9                	jal	10d04 <_lseek_r>
   10c28:	57fd                	li	a5,-1
   10c2a:	00f50f63          	beq	a0,a5,10c48 <__sseek+0x2e>
   10c2e:	00c45783          	lhu	a5,12(s0)
   10c32:	6705                	lui	a4,0x1
   10c34:	40b2                	lw	ra,12(sp)
   10c36:	8fd9                	or	a5,a5,a4
   10c38:	07c2                	sll	a5,a5,0x10
   10c3a:	87c1                	sra	a5,a5,0x10
   10c3c:	c828                	sw	a0,80(s0)
   10c3e:	00f41623          	sh	a5,12(s0)
   10c42:	4422                	lw	s0,8(sp)
   10c44:	0141                	add	sp,sp,16
   10c46:	8082                	ret
   10c48:	00c45783          	lhu	a5,12(s0)
   10c4c:	777d                	lui	a4,0xfffff
   10c4e:	177d                	add	a4,a4,-1 # ffffefff <__BSS_END__+0xfffe1263>
   10c50:	8ff9                	and	a5,a5,a4
   10c52:	07c2                	sll	a5,a5,0x10
   10c54:	87c1                	sra	a5,a5,0x10
   10c56:	40b2                	lw	ra,12(sp)
   10c58:	00f41623          	sh	a5,12(s0)
   10c5c:	4422                	lw	s0,8(sp)
   10c5e:	0141                	add	sp,sp,16
   10c60:	8082                	ret

00010c62 <__sclose>:
   10c62:	00e59583          	lh	a1,14(a1)
   10c66:	a009                	j	10c68 <_close_r>

00010c68 <_close_r>:
   10c68:	1141                	add	sp,sp,-16
   10c6a:	c422                	sw	s0,8(sp)
   10c6c:	842a                	mv	s0,a0
   10c6e:	852e                	mv	a0,a1
   10c70:	f801ae23          	sw	zero,-100(gp) # 1d7ac <errno>
   10c74:	c606                	sw	ra,12(sp)
   10c76:	1ba090ef          	jal	19e30 <_close>
   10c7a:	57fd                	li	a5,-1
   10c7c:	00f50663          	beq	a0,a5,10c88 <_close_r+0x20>
   10c80:	40b2                	lw	ra,12(sp)
   10c82:	4422                	lw	s0,8(sp)
   10c84:	0141                	add	sp,sp,16
   10c86:	8082                	ret
   10c88:	f9c1a783          	lw	a5,-100(gp) # 1d7ac <errno>
   10c8c:	dbf5                	beqz	a5,10c80 <_close_r+0x18>
   10c8e:	40b2                	lw	ra,12(sp)
   10c90:	c01c                	sw	a5,0(s0)
   10c92:	4422                	lw	s0,8(sp)
   10c94:	0141                	add	sp,sp,16
   10c96:	8082                	ret

00010c98 <_reclaim_reent>:
   10c98:	f681a783          	lw	a5,-152(gp) # 1d778 <_impure_ptr>
   10c9c:	06a78363          	beq	a5,a0,10d02 <_reclaim_reent+0x6a>
   10ca0:	416c                	lw	a1,68(a0)
   10ca2:	1101                	add	sp,sp,-32
   10ca4:	ca26                	sw	s1,20(sp)
   10ca6:	ce06                	sw	ra,28(sp)
   10ca8:	84aa                	mv	s1,a0
   10caa:	c98d                	beqz	a1,10cdc <_reclaim_reent+0x44>
   10cac:	c84a                	sw	s2,16(sp)
   10cae:	c64e                	sw	s3,12(sp)
   10cb0:	cc22                	sw	s0,24(sp)
   10cb2:	4901                	li	s2,0
   10cb4:	08000993          	li	s3,128
   10cb8:	012587b3          	add	a5,a1,s2
   10cbc:	4380                	lw	s0,0(a5)
   10cbe:	c419                	beqz	s0,10ccc <_reclaim_reent+0x34>
   10cc0:	85a2                	mv	a1,s0
   10cc2:	4000                	lw	s0,0(s0)
   10cc4:	8526                	mv	a0,s1
   10cc6:	2159                	jal	1114c <_free_r>
   10cc8:	fc65                	bnez	s0,10cc0 <_reclaim_reent+0x28>
   10cca:	40ec                	lw	a1,68(s1)
   10ccc:	0911                	add	s2,s2,4
   10cce:	ff3915e3          	bne	s2,s3,10cb8 <_reclaim_reent+0x20>
   10cd2:	8526                	mv	a0,s1
   10cd4:	29a5                	jal	1114c <_free_r>
   10cd6:	4462                	lw	s0,24(sp)
   10cd8:	4942                	lw	s2,16(sp)
   10cda:	49b2                	lw	s3,12(sp)
   10cdc:	5c8c                	lw	a1,56(s1)
   10cde:	c199                	beqz	a1,10ce4 <_reclaim_reent+0x4c>
   10ce0:	8526                	mv	a0,s1
   10ce2:	21ad                	jal	1114c <_free_r>
   10ce4:	44ec                	lw	a1,76(s1)
   10ce6:	c199                	beqz	a1,10cec <_reclaim_reent+0x54>
   10ce8:	8526                	mv	a0,s1
   10cea:	218d                	jal	1114c <_free_r>
   10cec:	58dc                	lw	a5,52(s1)
   10cee:	c791                	beqz	a5,10cfa <_reclaim_reent+0x62>
   10cf0:	40f2                	lw	ra,28(sp)
   10cf2:	8526                	mv	a0,s1
   10cf4:	44d2                	lw	s1,20(sp)
   10cf6:	6105                	add	sp,sp,32
   10cf8:	8782                	jr	a5
   10cfa:	40f2                	lw	ra,28(sp)
   10cfc:	44d2                	lw	s1,20(sp)
   10cfe:	6105                	add	sp,sp,32
   10d00:	8082                	ret
   10d02:	8082                	ret

00010d04 <_lseek_r>:
   10d04:	1141                	add	sp,sp,-16
   10d06:	872e                	mv	a4,a1
   10d08:	c422                	sw	s0,8(sp)
   10d0a:	85b2                	mv	a1,a2
   10d0c:	842a                	mv	s0,a0
   10d0e:	8636                	mv	a2,a3
   10d10:	853a                	mv	a0,a4
   10d12:	f801ae23          	sw	zero,-100(gp) # 1d7ac <errno>
   10d16:	c606                	sw	ra,12(sp)
   10d18:	1dc090ef          	jal	19ef4 <_lseek>
   10d1c:	57fd                	li	a5,-1
   10d1e:	00f50663          	beq	a0,a5,10d2a <_lseek_r+0x26>
   10d22:	40b2                	lw	ra,12(sp)
   10d24:	4422                	lw	s0,8(sp)
   10d26:	0141                	add	sp,sp,16
   10d28:	8082                	ret
   10d2a:	f9c1a783          	lw	a5,-100(gp) # 1d7ac <errno>
   10d2e:	dbf5                	beqz	a5,10d22 <_lseek_r+0x1e>
   10d30:	40b2                	lw	ra,12(sp)
   10d32:	c01c                	sw	a5,0(s0)
   10d34:	4422                	lw	s0,8(sp)
   10d36:	0141                	add	sp,sp,16
   10d38:	8082                	ret

00010d3a <_read_r>:
   10d3a:	1141                	add	sp,sp,-16
   10d3c:	872e                	mv	a4,a1
   10d3e:	c422                	sw	s0,8(sp)
   10d40:	85b2                	mv	a1,a2
   10d42:	842a                	mv	s0,a0
   10d44:	8636                	mv	a2,a3
   10d46:	853a                	mv	a0,a4
   10d48:	f801ae23          	sw	zero,-100(gp) # 1d7ac <errno>
   10d4c:	c606                	sw	ra,12(sp)
   10d4e:	1d2090ef          	jal	19f20 <_read>
   10d52:	57fd                	li	a5,-1
   10d54:	00f50663          	beq	a0,a5,10d60 <_read_r+0x26>
   10d58:	40b2                	lw	ra,12(sp)
   10d5a:	4422                	lw	s0,8(sp)
   10d5c:	0141                	add	sp,sp,16
   10d5e:	8082                	ret
   10d60:	f9c1a783          	lw	a5,-100(gp) # 1d7ac <errno>
   10d64:	dbf5                	beqz	a5,10d58 <_read_r+0x1e>
   10d66:	40b2                	lw	ra,12(sp)
   10d68:	c01c                	sw	a5,0(s0)
   10d6a:	4422                	lw	s0,8(sp)
   10d6c:	0141                	add	sp,sp,16
   10d6e:	8082                	ret

00010d70 <_write_r>:
   10d70:	1141                	add	sp,sp,-16
   10d72:	872e                	mv	a4,a1
   10d74:	c422                	sw	s0,8(sp)
   10d76:	85b2                	mv	a1,a2
   10d78:	842a                	mv	s0,a0
   10d7a:	8636                	mv	a2,a3
   10d7c:	853a                	mv	a0,a4
   10d7e:	f801ae23          	sw	zero,-100(gp) # 1d7ac <errno>
   10d82:	c606                	sw	ra,12(sp)
   10d84:	218090ef          	jal	19f9c <_write>
   10d88:	57fd                	li	a5,-1
   10d8a:	00f50663          	beq	a0,a5,10d96 <_write_r+0x26>
   10d8e:	40b2                	lw	ra,12(sp)
   10d90:	4422                	lw	s0,8(sp)
   10d92:	0141                	add	sp,sp,16
   10d94:	8082                	ret
   10d96:	f9c1a783          	lw	a5,-100(gp) # 1d7ac <errno>
   10d9a:	dbf5                	beqz	a5,10d8e <_write_r+0x1e>
   10d9c:	40b2                	lw	ra,12(sp)
   10d9e:	c01c                	sw	a5,0(s0)
   10da0:	4422                	lw	s0,8(sp)
   10da2:	0141                	add	sp,sp,16
   10da4:	8082                	ret

00010da6 <__libc_init_array>:
   10da6:	1141                	add	sp,sp,-16
   10da8:	c422                	sw	s0,8(sp)
   10daa:	c04a                	sw	s2,0(sp)
   10dac:	0000c797          	auipc	a5,0xc
   10db0:	25878793          	add	a5,a5,600 # 1d004 <__init_array_start>
   10db4:	0000c417          	auipc	s0,0xc
   10db8:	25040413          	add	s0,s0,592 # 1d004 <__init_array_start>
   10dbc:	c606                	sw	ra,12(sp)
   10dbe:	c226                	sw	s1,4(sp)
   10dc0:	40878933          	sub	s2,a5,s0
   10dc4:	00878b63          	beq	a5,s0,10dda <__libc_init_array+0x34>
   10dc8:	40295913          	sra	s2,s2,0x2
   10dcc:	4481                	li	s1,0
   10dce:	401c                	lw	a5,0(s0)
   10dd0:	0485                	add	s1,s1,1
   10dd2:	0411                	add	s0,s0,4
   10dd4:	9782                	jalr	a5
   10dd6:	ff24ece3          	bltu	s1,s2,10dce <__libc_init_array+0x28>
   10dda:	0000c797          	auipc	a5,0xc
   10dde:	23278793          	add	a5,a5,562 # 1d00c <__do_global_dtors_aux_fini_array_entry>
   10de2:	0000c417          	auipc	s0,0xc
   10de6:	22240413          	add	s0,s0,546 # 1d004 <__init_array_start>
   10dea:	40878933          	sub	s2,a5,s0
   10dee:	40295913          	sra	s2,s2,0x2
   10df2:	00878963          	beq	a5,s0,10e04 <__libc_init_array+0x5e>
   10df6:	4481                	li	s1,0
   10df8:	401c                	lw	a5,0(s0)
   10dfa:	0485                	add	s1,s1,1
   10dfc:	0411                	add	s0,s0,4
   10dfe:	9782                	jalr	a5
   10e00:	ff24ece3          	bltu	s1,s2,10df8 <__libc_init_array+0x52>
   10e04:	40b2                	lw	ra,12(sp)
   10e06:	4422                	lw	s0,8(sp)
   10e08:	4492                	lw	s1,4(sp)
   10e0a:	4902                	lw	s2,0(sp)
   10e0c:	0141                	add	sp,sp,16
   10e0e:	8082                	ret

00010e10 <__libc_fini_array>:
   10e10:	1141                	add	sp,sp,-16
   10e12:	c422                	sw	s0,8(sp)
   10e14:	0000c797          	auipc	a5,0xc
   10e18:	1f878793          	add	a5,a5,504 # 1d00c <__do_global_dtors_aux_fini_array_entry>
   10e1c:	0000c417          	auipc	s0,0xc
   10e20:	1f440413          	add	s0,s0,500 # 1d010 <__sglue>
   10e24:	8c1d                	sub	s0,s0,a5
   10e26:	c226                	sw	s1,4(sp)
   10e28:	c606                	sw	ra,12(sp)
   10e2a:	40245493          	sra	s1,s0,0x2
   10e2e:	c881                	beqz	s1,10e3e <__libc_fini_array+0x2e>
   10e30:	1471                	add	s0,s0,-4
   10e32:	943e                	add	s0,s0,a5
   10e34:	401c                	lw	a5,0(s0)
   10e36:	14fd                	add	s1,s1,-1
   10e38:	1471                	add	s0,s0,-4
   10e3a:	9782                	jalr	a5
   10e3c:	fce5                	bnez	s1,10e34 <__libc_fini_array+0x24>
   10e3e:	40b2                	lw	ra,12(sp)
   10e40:	4422                	lw	s0,8(sp)
   10e42:	4492                	lw	s1,4(sp)
   10e44:	0141                	add	sp,sp,16
   10e46:	8082                	ret

00010e48 <__retarget_lock_init>:
   10e48:	8082                	ret

00010e4a <__retarget_lock_init_recursive>:
   10e4a:	8082                	ret

00010e4c <__retarget_lock_close>:
   10e4c:	8082                	ret

00010e4e <__retarget_lock_close_recursive>:
   10e4e:	8082                	ret

00010e50 <__retarget_lock_acquire>:
   10e50:	8082                	ret

00010e52 <__retarget_lock_acquire_recursive>:
   10e52:	8082                	ret

00010e54 <__retarget_lock_try_acquire>:
   10e54:	4505                	li	a0,1
   10e56:	8082                	ret

00010e58 <__retarget_lock_try_acquire_recursive>:
   10e58:	4505                	li	a0,1
   10e5a:	8082                	ret

00010e5c <__retarget_lock_release>:
   10e5c:	8082                	ret

00010e5e <__retarget_lock_release_recursive>:
   10e5e:	8082                	ret

00010e60 <memset>:
   10e60:	433d                	li	t1,15
   10e62:	872a                	mv	a4,a0
   10e64:	02c37363          	bgeu	t1,a2,10e8a <memset+0x2a>
   10e68:	00f77793          	and	a5,a4,15
   10e6c:	efbd                	bnez	a5,10eea <memset+0x8a>
   10e6e:	e5ad                	bnez	a1,10ed8 <memset+0x78>
   10e70:	ff067693          	and	a3,a2,-16
   10e74:	8a3d                	and	a2,a2,15
   10e76:	96ba                	add	a3,a3,a4
   10e78:	c30c                	sw	a1,0(a4)
   10e7a:	c34c                	sw	a1,4(a4)
   10e7c:	c70c                	sw	a1,8(a4)
   10e7e:	c74c                	sw	a1,12(a4)
   10e80:	0741                	add	a4,a4,16
   10e82:	fed76be3          	bltu	a4,a3,10e78 <memset+0x18>
   10e86:	e211                	bnez	a2,10e8a <memset+0x2a>
   10e88:	8082                	ret
   10e8a:	40c306b3          	sub	a3,t1,a2
   10e8e:	068a                	sll	a3,a3,0x2
   10e90:	00000297          	auipc	t0,0x0
   10e94:	9696                	add	a3,a3,t0
   10e96:	00a68067          	jr	10(a3)
   10e9a:	00b70723          	sb	a1,14(a4)
   10e9e:	00b706a3          	sb	a1,13(a4)
   10ea2:	00b70623          	sb	a1,12(a4)
   10ea6:	00b705a3          	sb	a1,11(a4)
   10eaa:	00b70523          	sb	a1,10(a4)
   10eae:	00b704a3          	sb	a1,9(a4)
   10eb2:	00b70423          	sb	a1,8(a4)
   10eb6:	00b703a3          	sb	a1,7(a4)
   10eba:	00b70323          	sb	a1,6(a4)
   10ebe:	00b702a3          	sb	a1,5(a4)
   10ec2:	00b70223          	sb	a1,4(a4)
   10ec6:	00b701a3          	sb	a1,3(a4)
   10eca:	00b70123          	sb	a1,2(a4)
   10ece:	00b700a3          	sb	a1,1(a4)
   10ed2:	00b70023          	sb	a1,0(a4)
   10ed6:	8082                	ret
   10ed8:	0ff5f593          	zext.b	a1,a1
   10edc:	00859693          	sll	a3,a1,0x8
   10ee0:	8dd5                	or	a1,a1,a3
   10ee2:	01059693          	sll	a3,a1,0x10
   10ee6:	8dd5                	or	a1,a1,a3
   10ee8:	b761                	j	10e70 <memset+0x10>
   10eea:	00279693          	sll	a3,a5,0x2
   10eee:	00000297          	auipc	t0,0x0
   10ef2:	9696                	add	a3,a3,t0
   10ef4:	8286                	mv	t0,ra
   10ef6:	fa8680e7          	jalr	-88(a3)
   10efa:	8096                	mv	ra,t0
   10efc:	17c1                	add	a5,a5,-16
   10efe:	8f1d                	sub	a4,a4,a5
   10f00:	963e                	add	a2,a2,a5
   10f02:	f8c374e3          	bgeu	t1,a2,10e8a <memset+0x2a>
   10f06:	b7a5                	j	10e6e <memset+0xe>

00010f08 <__register_exitproc>:
   10f08:	1101                	add	sp,sp,-32
   10f0a:	c84a                	sw	s2,16(sp)
   10f0c:	f6c18913          	add	s2,gp,-148 # 1d77c <__atexit_recursive_mutex>
   10f10:	cc22                	sw	s0,24(sp)
   10f12:	842a                	mv	s0,a0
   10f14:	00092503          	lw	a0,0(s2)
   10f18:	ca26                	sw	s1,20(sp)
   10f1a:	c64e                	sw	s3,12(sp)
   10f1c:	c452                	sw	s4,8(sp)
   10f1e:	ce06                	sw	ra,28(sp)
   10f20:	84ae                	mv	s1,a1
   10f22:	8a32                	mv	s4,a2
   10f24:	89b6                	mv	s3,a3
   10f26:	3735                	jal	10e52 <__retarget_lock_acquire_recursive>
   10f28:	fc018713          	add	a4,gp,-64 # 1d7d0 <__atexit>
   10f2c:	431c                	lw	a5,0(a4)
   10f2e:	cfb9                	beqz	a5,10f8c <__register_exitproc+0x84>
   10f30:	43d8                	lw	a4,4(a5)
   10f32:	45fd                	li	a1,31
   10f34:	00092503          	lw	a0,0(s2)
   10f38:	04e5ce63          	blt	a1,a4,10f94 <__register_exitproc+0x8c>
   10f3c:	00271593          	sll	a1,a4,0x2
   10f40:	ec19                	bnez	s0,10f5e <__register_exitproc+0x56>
   10f42:	0705                	add	a4,a4,1
   10f44:	c3d8                	sw	a4,4(a5)
   10f46:	97ae                	add	a5,a5,a1
   10f48:	c784                	sw	s1,8(a5)
   10f4a:	3f11                	jal	10e5e <__retarget_lock_release_recursive>
   10f4c:	4501                	li	a0,0
   10f4e:	40f2                	lw	ra,28(sp)
   10f50:	4462                	lw	s0,24(sp)
   10f52:	44d2                	lw	s1,20(sp)
   10f54:	4942                	lw	s2,16(sp)
   10f56:	49b2                	lw	s3,12(sp)
   10f58:	4a22                	lw	s4,8(sp)
   10f5a:	6105                	add	sp,sp,32
   10f5c:	8082                	ret
   10f5e:	00b78833          	add	a6,a5,a1
   10f62:	09482423          	sw	s4,136(a6)
   10f66:	1887a683          	lw	a3,392(a5)
   10f6a:	4605                	li	a2,1
   10f6c:	00e61633          	sll	a2,a2,a4
   10f70:	8ed1                	or	a3,a3,a2
   10f72:	18d7a423          	sw	a3,392(a5)
   10f76:	11382423          	sw	s3,264(a6)
   10f7a:	4689                	li	a3,2
   10f7c:	fcd413e3          	bne	s0,a3,10f42 <__register_exitproc+0x3a>
   10f80:	18c7a683          	lw	a3,396(a5)
   10f84:	8ed1                	or	a3,a3,a2
   10f86:	18d7a623          	sw	a3,396(a5)
   10f8a:	bf65                	j	10f42 <__register_exitproc+0x3a>
   10f8c:	12c18793          	add	a5,gp,300 # 1d93c <__atexit0>
   10f90:	c31c                	sw	a5,0(a4)
   10f92:	bf79                	j	10f30 <__register_exitproc+0x28>
   10f94:	35e9                	jal	10e5e <__retarget_lock_release_recursive>
   10f96:	557d                	li	a0,-1
   10f98:	bf5d                	j	10f4e <__register_exitproc+0x46>

00010f9a <__call_exitprocs>:
   10f9a:	7179                	add	sp,sp,-48
   10f9c:	c65e                	sw	s7,12(sp)
   10f9e:	f6c18b93          	add	s7,gp,-148 # 1d77c <__atexit_recursive_mutex>
   10fa2:	c85a                	sw	s6,16(sp)
   10fa4:	8b2a                	mv	s6,a0
   10fa6:	000ba503          	lw	a0,0(s7)
   10faa:	cc52                	sw	s4,24(sp)
   10fac:	fc018a13          	add	s4,gp,-64 # 1d7d0 <__atexit>
   10fb0:	d04a                	sw	s2,32(sp)
   10fb2:	c462                	sw	s8,8(sp)
   10fb4:	d606                	sw	ra,44(sp)
   10fb6:	8c2e                	mv	s8,a1
   10fb8:	3d69                	jal	10e52 <__retarget_lock_acquire_recursive>
   10fba:	000a2903          	lw	s2,0(s4)
   10fbe:	06090663          	beqz	s2,1102a <__call_exitprocs+0x90>
   10fc2:	ce4e                	sw	s3,28(sp)
   10fc4:	ca56                	sw	s5,20(sp)
   10fc6:	d422                	sw	s0,40(sp)
   10fc8:	d226                	sw	s1,36(sp)
   10fca:	c266                	sw	s9,4(sp)
   10fcc:	59fd                	li	s3,-1
   10fce:	4a85                	li	s5,1
   10fd0:	00492483          	lw	s1,4(s2)
   10fd4:	fff48413          	add	s0,s1,-1
   10fd8:	04044463          	bltz	s0,11020 <__call_exitprocs+0x86>
   10fdc:	048a                	sll	s1,s1,0x2
   10fde:	94ca                	add	s1,s1,s2
   10fe0:	040c1f63          	bnez	s8,1103e <__call_exitprocs+0xa4>
   10fe4:	00492783          	lw	a5,4(s2)
   10fe8:	40d4                	lw	a3,4(s1)
   10fea:	17fd                	add	a5,a5,-1
   10fec:	08878363          	beq	a5,s0,11072 <__call_exitprocs+0xd8>
   10ff0:	0004a223          	sw	zero,4(s1)
   10ff4:	c295                	beqz	a3,11018 <__call_exitprocs+0x7e>
   10ff6:	18892783          	lw	a5,392(s2)
   10ffa:	008a9733          	sll	a4,s5,s0
   10ffe:	00492c83          	lw	s9,4(s2)
   11002:	8ff9                	and	a5,a5,a4
   11004:	e7b1                	bnez	a5,11050 <__call_exitprocs+0xb6>
   11006:	9682                	jalr	a3
   11008:	00492703          	lw	a4,4(s2)
   1100c:	000a2783          	lw	a5,0(s4)
   11010:	05971e63          	bne	a4,s9,1106c <__call_exitprocs+0xd2>
   11014:	05279c63          	bne	a5,s2,1106c <__call_exitprocs+0xd2>
   11018:	147d                	add	s0,s0,-1
   1101a:	14f1                	add	s1,s1,-4
   1101c:	fd3412e3          	bne	s0,s3,10fe0 <__call_exitprocs+0x46>
   11020:	5422                	lw	s0,40(sp)
   11022:	5492                	lw	s1,36(sp)
   11024:	49f2                	lw	s3,28(sp)
   11026:	4ad2                	lw	s5,20(sp)
   11028:	4c92                	lw	s9,4(sp)
   1102a:	000ba503          	lw	a0,0(s7)
   1102e:	50b2                	lw	ra,44(sp)
   11030:	5902                	lw	s2,32(sp)
   11032:	4a62                	lw	s4,24(sp)
   11034:	4b42                	lw	s6,16(sp)
   11036:	4bb2                	lw	s7,12(sp)
   11038:	4c22                	lw	s8,8(sp)
   1103a:	6145                	add	sp,sp,48
   1103c:	b50d                	j	10e5e <__retarget_lock_release_recursive>
   1103e:	1044a783          	lw	a5,260(s1)
   11042:	fb8781e3          	beq	a5,s8,10fe4 <__call_exitprocs+0x4a>
   11046:	147d                	add	s0,s0,-1
   11048:	14f1                	add	s1,s1,-4
   1104a:	ff341ae3          	bne	s0,s3,1103e <__call_exitprocs+0xa4>
   1104e:	bfc9                	j	11020 <__call_exitprocs+0x86>
   11050:	18c92783          	lw	a5,396(s2)
   11054:	0844a583          	lw	a1,132(s1)
   11058:	8f7d                	and	a4,a4,a5
   1105a:	ef19                	bnez	a4,11078 <__call_exitprocs+0xde>
   1105c:	855a                	mv	a0,s6
   1105e:	9682                	jalr	a3
   11060:	00492703          	lw	a4,4(s2)
   11064:	000a2783          	lw	a5,0(s4)
   11068:	fb9706e3          	beq	a4,s9,11014 <__call_exitprocs+0x7a>
   1106c:	dbd5                	beqz	a5,11020 <__call_exitprocs+0x86>
   1106e:	893e                	mv	s2,a5
   11070:	b785                	j	10fd0 <__call_exitprocs+0x36>
   11072:	00892223          	sw	s0,4(s2)
   11076:	bfbd                	j	10ff4 <__call_exitprocs+0x5a>
   11078:	852e                	mv	a0,a1
   1107a:	9682                	jalr	a3
   1107c:	b771                	j	11008 <__call_exitprocs+0x6e>

0001107e <_malloc_trim_r>:
   1107e:	1101                	add	sp,sp,-32
   11080:	cc22                	sw	s0,24(sp)
   11082:	ca26                	sw	s1,20(sp)
   11084:	c84a                	sw	s2,16(sp)
   11086:	c64e                	sw	s3,12(sp)
   11088:	c452                	sw	s4,8(sp)
   1108a:	89ae                	mv	s3,a1
   1108c:	ce06                	sw	ra,28(sp)
   1108e:	892a                	mv	s2,a0
   11090:	0000ca17          	auipc	s4,0xc
   11094:	0b0a0a13          	add	s4,s4,176 # 1d140 <__malloc_av_>
   11098:	08b000ef          	jal	11922 <__malloc_lock>
   1109c:	008a2703          	lw	a4,8(s4)
   110a0:	6785                	lui	a5,0x1
   110a2:	17bd                	add	a5,a5,-17 # fef <exit-0xf0a5>
   110a4:	4344                	lw	s1,4(a4)
   110a6:	6705                	lui	a4,0x1
   110a8:	98f1                	and	s1,s1,-4
   110aa:	00f48433          	add	s0,s1,a5
   110ae:	41340433          	sub	s0,s0,s3
   110b2:	8031                	srl	s0,s0,0xc
   110b4:	147d                	add	s0,s0,-1
   110b6:	0432                	sll	s0,s0,0xc
   110b8:	00e44b63          	blt	s0,a4,110ce <_malloc_trim_r+0x50>
   110bc:	4581                	li	a1,0
   110be:	854a                	mv	a0,s2
   110c0:	01a050ef          	jal	160da <_sbrk_r>
   110c4:	008a2783          	lw	a5,8(s4)
   110c8:	97a6                	add	a5,a5,s1
   110ca:	00f50e63          	beq	a0,a5,110e6 <_malloc_trim_r+0x68>
   110ce:	854a                	mv	a0,s2
   110d0:	05b000ef          	jal	1192a <__malloc_unlock>
   110d4:	40f2                	lw	ra,28(sp)
   110d6:	4462                	lw	s0,24(sp)
   110d8:	44d2                	lw	s1,20(sp)
   110da:	4942                	lw	s2,16(sp)
   110dc:	49b2                	lw	s3,12(sp)
   110de:	4a22                	lw	s4,8(sp)
   110e0:	4501                	li	a0,0
   110e2:	6105                	add	sp,sp,32
   110e4:	8082                	ret
   110e6:	408005b3          	neg	a1,s0
   110ea:	854a                	mv	a0,s2
   110ec:	7ef040ef          	jal	160da <_sbrk_r>
   110f0:	57fd                	li	a5,-1
   110f2:	02f50963          	beq	a0,a5,11124 <_malloc_trim_r+0xa6>
   110f6:	2bc18713          	add	a4,gp,700 # 1dacc <__malloc_current_mallinfo>
   110fa:	431c                	lw	a5,0(a4)
   110fc:	008a2683          	lw	a3,8(s4)
   11100:	8c81                	sub	s1,s1,s0
   11102:	0014e493          	or	s1,s1,1
   11106:	8f81                	sub	a5,a5,s0
   11108:	854a                	mv	a0,s2
   1110a:	c2c4                	sw	s1,4(a3)
   1110c:	c31c                	sw	a5,0(a4)
   1110e:	01d000ef          	jal	1192a <__malloc_unlock>
   11112:	40f2                	lw	ra,28(sp)
   11114:	4462                	lw	s0,24(sp)
   11116:	44d2                	lw	s1,20(sp)
   11118:	4942                	lw	s2,16(sp)
   1111a:	49b2                	lw	s3,12(sp)
   1111c:	4a22                	lw	s4,8(sp)
   1111e:	4505                	li	a0,1
   11120:	6105                	add	sp,sp,32
   11122:	8082                	ret
   11124:	4581                	li	a1,0
   11126:	854a                	mv	a0,s2
   11128:	7b3040ef          	jal	160da <_sbrk_r>
   1112c:	008a2703          	lw	a4,8(s4)
   11130:	46bd                	li	a3,15
   11132:	40e507b3          	sub	a5,a0,a4
   11136:	f8f6dce3          	bge	a3,a5,110ce <_malloc_trim_r+0x50>
   1113a:	f701a683          	lw	a3,-144(gp) # 1d780 <__malloc_sbrk_base>
   1113e:	8d15                	sub	a0,a0,a3
   11140:	0017e793          	or	a5,a5,1
   11144:	2aa1ae23          	sw	a0,700(gp) # 1dacc <__malloc_current_mallinfo>
   11148:	c35c                	sw	a5,4(a4)
   1114a:	b751                	j	110ce <_malloc_trim_r+0x50>

0001114c <_free_r>:
   1114c:	10058b63          	beqz	a1,11262 <_free_r+0x116>
   11150:	1141                	add	sp,sp,-16
   11152:	c422                	sw	s0,8(sp)
   11154:	c226                	sw	s1,4(sp)
   11156:	842e                	mv	s0,a1
   11158:	84aa                	mv	s1,a0
   1115a:	c606                	sw	ra,12(sp)
   1115c:	7c6000ef          	jal	11922 <__malloc_lock>
   11160:	ffc42583          	lw	a1,-4(s0)
   11164:	ff840713          	add	a4,s0,-8
   11168:	0000c517          	auipc	a0,0xc
   1116c:	fd850513          	add	a0,a0,-40 # 1d140 <__malloc_av_>
   11170:	ffe5f793          	and	a5,a1,-2
   11174:	00f70633          	add	a2,a4,a5
   11178:	4254                	lw	a3,4(a2)
   1117a:	00852803          	lw	a6,8(a0)
   1117e:	9af1                	and	a3,a3,-4
   11180:	12c80363          	beq	a6,a2,112a6 <_free_r+0x15a>
   11184:	c254                	sw	a3,4(a2)
   11186:	8985                	and	a1,a1,1
   11188:	00d60833          	add	a6,a2,a3
   1118c:	e9b5                	bnez	a1,11200 <_free_r+0xb4>
   1118e:	ff842303          	lw	t1,-8(s0)
   11192:	00482583          	lw	a1,4(a6)
   11196:	0000c897          	auipc	a7,0xc
   1119a:	fb288893          	add	a7,a7,-78 # 1d148 <__malloc_av_+0x8>
   1119e:	40670733          	sub	a4,a4,t1
   111a2:	00872803          	lw	a6,8(a4) # 1008 <exit-0xf08c>
   111a6:	979a                	add	a5,a5,t1
   111a8:	8985                	and	a1,a1,1
   111aa:	0f180263          	beq	a6,a7,1128e <_free_r+0x142>
   111ae:	00c72303          	lw	t1,12(a4)
   111b2:	00682623          	sw	t1,12(a6)
   111b6:	01032423          	sw	a6,8(t1)
   111ba:	10058e63          	beqz	a1,112d6 <_free_r+0x18a>
   111be:	0017e693          	or	a3,a5,1
   111c2:	c354                	sw	a3,4(a4)
   111c4:	c21c                	sw	a5,0(a2)
   111c6:	1ff00693          	li	a3,511
   111ca:	04f6e863          	bltu	a3,a5,1121a <_free_r+0xce>
   111ce:	ff87f693          	and	a3,a5,-8
   111d2:	06a1                	add	a3,a3,8
   111d4:	414c                	lw	a1,4(a0)
   111d6:	96aa                	add	a3,a3,a0
   111d8:	4290                	lw	a2,0(a3)
   111da:	0057d813          	srl	a6,a5,0x5
   111de:	4785                	li	a5,1
   111e0:	010797b3          	sll	a5,a5,a6
   111e4:	8fcd                	or	a5,a5,a1
   111e6:	ff868593          	add	a1,a3,-8
   111ea:	c74c                	sw	a1,12(a4)
   111ec:	c710                	sw	a2,8(a4)
   111ee:	c15c                	sw	a5,4(a0)
   111f0:	c298                	sw	a4,0(a3)
   111f2:	c658                	sw	a4,12(a2)
   111f4:	4422                	lw	s0,8(sp)
   111f6:	40b2                	lw	ra,12(sp)
   111f8:	8526                	mv	a0,s1
   111fa:	4492                	lw	s1,4(sp)
   111fc:	0141                	add	sp,sp,16
   111fe:	a735                	j	1192a <__malloc_unlock>
   11200:	00482583          	lw	a1,4(a6)
   11204:	8985                	and	a1,a1,1
   11206:	cdb9                	beqz	a1,11264 <_free_r+0x118>
   11208:	0017e693          	or	a3,a5,1
   1120c:	fed42e23          	sw	a3,-4(s0)
   11210:	c21c                	sw	a5,0(a2)
   11212:	1ff00693          	li	a3,511
   11216:	faf6fce3          	bgeu	a3,a5,111ce <_free_r+0x82>
   1121a:	0097d693          	srl	a3,a5,0x9
   1121e:	4611                	li	a2,4
   11220:	0ad66d63          	bltu	a2,a3,112da <_free_r+0x18e>
   11224:	0067d693          	srl	a3,a5,0x6
   11228:	03968593          	add	a1,a3,57
   1122c:	03868613          	add	a2,a3,56
   11230:	058e                	sll	a1,a1,0x3
   11232:	95aa                	add	a1,a1,a0
   11234:	4194                	lw	a3,0(a1)
   11236:	15e1                	add	a1,a1,-8
   11238:	00d59663          	bne	a1,a3,11244 <_free_r+0xf8>
   1123c:	a0c5                	j	1131c <_free_r+0x1d0>
   1123e:	4694                	lw	a3,8(a3)
   11240:	00d58663          	beq	a1,a3,1124c <_free_r+0x100>
   11244:	42d0                	lw	a2,4(a3)
   11246:	9a71                	and	a2,a2,-4
   11248:	fec7ebe3          	bltu	a5,a2,1123e <_free_r+0xf2>
   1124c:	46cc                	lw	a1,12(a3)
   1124e:	c74c                	sw	a1,12(a4)
   11250:	c714                	sw	a3,8(a4)
   11252:	4422                	lw	s0,8(sp)
   11254:	40b2                	lw	ra,12(sp)
   11256:	c598                	sw	a4,8(a1)
   11258:	8526                	mv	a0,s1
   1125a:	4492                	lw	s1,4(sp)
   1125c:	c6d8                	sw	a4,12(a3)
   1125e:	0141                	add	sp,sp,16
   11260:	a5e9                	j	1192a <__malloc_unlock>
   11262:	8082                	ret
   11264:	97b6                	add	a5,a5,a3
   11266:	0000c897          	auipc	a7,0xc
   1126a:	ee288893          	add	a7,a7,-286 # 1d148 <__malloc_av_+0x8>
   1126e:	4614                	lw	a3,8(a2)
   11270:	09168a63          	beq	a3,a7,11304 <_free_r+0x1b8>
   11274:	00c62803          	lw	a6,12(a2)
   11278:	0017e593          	or	a1,a5,1
   1127c:	00f70633          	add	a2,a4,a5
   11280:	0106a623          	sw	a6,12(a3)
   11284:	00d82423          	sw	a3,8(a6)
   11288:	c34c                	sw	a1,4(a4)
   1128a:	c21c                	sw	a5,0(a2)
   1128c:	bf2d                	j	111c6 <_free_r+0x7a>
   1128e:	edf1                	bnez	a1,1136a <_free_r+0x21e>
   11290:	460c                	lw	a1,8(a2)
   11292:	4650                	lw	a2,12(a2)
   11294:	96be                	add	a3,a3,a5
   11296:	0016e793          	or	a5,a3,1
   1129a:	c5d0                	sw	a2,12(a1)
   1129c:	c60c                	sw	a1,8(a2)
   1129e:	c35c                	sw	a5,4(a4)
   112a0:	9736                	add	a4,a4,a3
   112a2:	c314                	sw	a3,0(a4)
   112a4:	bf81                	j	111f4 <_free_r+0xa8>
   112a6:	8985                	and	a1,a1,1
   112a8:	96be                	add	a3,a3,a5
   112aa:	e989                	bnez	a1,112bc <_free_r+0x170>
   112ac:	ff842583          	lw	a1,-8(s0)
   112b0:	8f0d                	sub	a4,a4,a1
   112b2:	475c                	lw	a5,12(a4)
   112b4:	4710                	lw	a2,8(a4)
   112b6:	96ae                	add	a3,a3,a1
   112b8:	c65c                	sw	a5,12(a2)
   112ba:	c790                	sw	a2,8(a5)
   112bc:	0016e793          	or	a5,a3,1
   112c0:	c35c                	sw	a5,4(a4)
   112c2:	c518                	sw	a4,8(a0)
   112c4:	f741a783          	lw	a5,-140(gp) # 1d784 <__malloc_trim_threshold>
   112c8:	f2f6e6e3          	bltu	a3,a5,111f4 <_free_r+0xa8>
   112cc:	fcc1a583          	lw	a1,-52(gp) # 1d7dc <__malloc_top_pad>
   112d0:	8526                	mv	a0,s1
   112d2:	3375                	jal	1107e <_malloc_trim_r>
   112d4:	b705                	j	111f4 <_free_r+0xa8>
   112d6:	97b6                	add	a5,a5,a3
   112d8:	bf59                	j	1126e <_free_r+0x122>
   112da:	4651                	li	a2,20
   112dc:	00d67e63          	bgeu	a2,a3,112f8 <_free_r+0x1ac>
   112e0:	05400613          	li	a2,84
   112e4:	04d66663          	bltu	a2,a3,11330 <_free_r+0x1e4>
   112e8:	00c7d693          	srl	a3,a5,0xc
   112ec:	06f68593          	add	a1,a3,111
   112f0:	06e68613          	add	a2,a3,110
   112f4:	058e                	sll	a1,a1,0x3
   112f6:	bf35                	j	11232 <_free_r+0xe6>
   112f8:	05c68593          	add	a1,a3,92
   112fc:	05b68613          	add	a2,a3,91
   11300:	058e                	sll	a1,a1,0x3
   11302:	bf05                	j	11232 <_free_r+0xe6>
   11304:	c958                	sw	a4,20(a0)
   11306:	c918                	sw	a4,16(a0)
   11308:	0017e693          	or	a3,a5,1
   1130c:	01172623          	sw	a7,12(a4)
   11310:	01172423          	sw	a7,8(a4)
   11314:	c354                	sw	a3,4(a4)
   11316:	973e                	add	a4,a4,a5
   11318:	c31c                	sw	a5,0(a4)
   1131a:	bde9                	j	111f4 <_free_r+0xa8>
   1131c:	00452803          	lw	a6,4(a0)
   11320:	8609                	sra	a2,a2,0x2
   11322:	4785                	li	a5,1
   11324:	00c797b3          	sll	a5,a5,a2
   11328:	0107e7b3          	or	a5,a5,a6
   1132c:	c15c                	sw	a5,4(a0)
   1132e:	b705                	j	1124e <_free_r+0x102>
   11330:	15400613          	li	a2,340
   11334:	00d66a63          	bltu	a2,a3,11348 <_free_r+0x1fc>
   11338:	00f7d693          	srl	a3,a5,0xf
   1133c:	07868593          	add	a1,a3,120
   11340:	07768613          	add	a2,a3,119
   11344:	058e                	sll	a1,a1,0x3
   11346:	b5f5                	j	11232 <_free_r+0xe6>
   11348:	55400613          	li	a2,1364
   1134c:	00d66a63          	bltu	a2,a3,11360 <_free_r+0x214>
   11350:	0127d693          	srl	a3,a5,0x12
   11354:	07d68593          	add	a1,a3,125
   11358:	07c68613          	add	a2,a3,124
   1135c:	058e                	sll	a1,a1,0x3
   1135e:	bdd1                	j	11232 <_free_r+0xe6>
   11360:	3f800593          	li	a1,1016
   11364:	07e00613          	li	a2,126
   11368:	b5e9                	j	11232 <_free_r+0xe6>
   1136a:	0017e693          	or	a3,a5,1
   1136e:	c354                	sw	a3,4(a4)
   11370:	c21c                	sw	a5,0(a2)
   11372:	b549                	j	111f4 <_free_r+0xa8>

00011374 <_malloc_r>:
   11374:	7179                	add	sp,sp,-48
   11376:	d04a                	sw	s2,32(sp)
   11378:	d606                	sw	ra,44(sp)
   1137a:	d422                	sw	s0,40(sp)
   1137c:	d226                	sw	s1,36(sp)
   1137e:	ce4e                	sw	s3,28(sp)
   11380:	00b58793          	add	a5,a1,11
   11384:	4759                	li	a4,22
   11386:	892a                	mv	s2,a0
   11388:	04f76963          	bltu	a4,a5,113da <_malloc_r+0x66>
   1138c:	47c1                	li	a5,16
   1138e:	16b7eb63          	bltu	a5,a1,11504 <_malloc_r+0x190>
   11392:	2b41                	jal	11922 <__malloc_lock>
   11394:	47e1                	li	a5,24
   11396:	4589                	li	a1,2
   11398:	44c1                	li	s1,16
   1139a:	0000c997          	auipc	s3,0xc
   1139e:	da698993          	add	s3,s3,-602 # 1d140 <__malloc_av_>
   113a2:	97ce                	add	a5,a5,s3
   113a4:	43c0                	lw	s0,4(a5)
   113a6:	ff878713          	add	a4,a5,-8
   113aa:	26e40163          	beq	s0,a4,1160c <_malloc_r+0x298>
   113ae:	405c                	lw	a5,4(s0)
   113b0:	4454                	lw	a3,12(s0)
   113b2:	4410                	lw	a2,8(s0)
   113b4:	9bf1                	and	a5,a5,-4
   113b6:	97a2                	add	a5,a5,s0
   113b8:	43d8                	lw	a4,4(a5)
   113ba:	c654                	sw	a3,12(a2)
   113bc:	c690                	sw	a2,8(a3)
   113be:	00176713          	or	a4,a4,1
   113c2:	854a                	mv	a0,s2
   113c4:	c3d8                	sw	a4,4(a5)
   113c6:	2395                	jal	1192a <__malloc_unlock>
   113c8:	00840513          	add	a0,s0,8
   113cc:	50b2                	lw	ra,44(sp)
   113ce:	5422                	lw	s0,40(sp)
   113d0:	5492                	lw	s1,36(sp)
   113d2:	5902                	lw	s2,32(sp)
   113d4:	49f2                	lw	s3,28(sp)
   113d6:	6145                	add	sp,sp,48
   113d8:	8082                	ret
   113da:	ff87f493          	and	s1,a5,-8
   113de:	1207c363          	bltz	a5,11504 <_malloc_r+0x190>
   113e2:	12b4e163          	bltu	s1,a1,11504 <_malloc_r+0x190>
   113e6:	2b35                	jal	11922 <__malloc_lock>
   113e8:	1f700793          	li	a5,503
   113ec:	2c97ff63          	bgeu	a5,s1,116ca <_malloc_r+0x356>
   113f0:	0094d793          	srl	a5,s1,0x9
   113f4:	10078d63          	beqz	a5,1150e <_malloc_r+0x19a>
   113f8:	4711                	li	a4,4
   113fa:	24f76e63          	bltu	a4,a5,11656 <_malloc_r+0x2e2>
   113fe:	0064d793          	srl	a5,s1,0x6
   11402:	03978593          	add	a1,a5,57
   11406:	03878813          	add	a6,a5,56
   1140a:	00359613          	sll	a2,a1,0x3
   1140e:	0000c997          	auipc	s3,0xc
   11412:	d3298993          	add	s3,s3,-718 # 1d140 <__malloc_av_>
   11416:	964e                	add	a2,a2,s3
   11418:	4240                	lw	s0,4(a2)
   1141a:	1661                	add	a2,a2,-8
   1141c:	02860163          	beq	a2,s0,1143e <_malloc_r+0xca>
   11420:	453d                	li	a0,15
   11422:	a039                	j	11430 <_malloc_r+0xbc>
   11424:	4454                	lw	a3,12(s0)
   11426:	1e075163          	bgez	a4,11608 <_malloc_r+0x294>
   1142a:	00d60a63          	beq	a2,a3,1143e <_malloc_r+0xca>
   1142e:	8436                	mv	s0,a3
   11430:	405c                	lw	a5,4(s0)
   11432:	9bf1                	and	a5,a5,-4
   11434:	40978733          	sub	a4,a5,s1
   11438:	fee556e3          	bge	a0,a4,11424 <_malloc_r+0xb0>
   1143c:	85c2                	mv	a1,a6
   1143e:	0109a403          	lw	s0,16(s3)
   11442:	0000c897          	auipc	a7,0xc
   11446:	d0688893          	add	a7,a7,-762 # 1d148 <__malloc_av_+0x8>
   1144a:	1b140c63          	beq	s0,a7,11602 <_malloc_r+0x28e>
   1144e:	405c                	lw	a5,4(s0)
   11450:	46bd                	li	a3,15
   11452:	9bf1                	and	a5,a5,-4
   11454:	40978733          	sub	a4,a5,s1
   11458:	26e6ce63          	blt	a3,a4,116d4 <_malloc_r+0x360>
   1145c:	0119aa23          	sw	a7,20(s3)
   11460:	0119a823          	sw	a7,16(s3)
   11464:	24075963          	bgez	a4,116b6 <_malloc_r+0x342>
   11468:	1ff00713          	li	a4,511
   1146c:	0049a503          	lw	a0,4(s3)
   11470:	1af76363          	bltu	a4,a5,11616 <_malloc_r+0x2a2>
   11474:	ff87f713          	and	a4,a5,-8
   11478:	0721                	add	a4,a4,8
   1147a:	974e                	add	a4,a4,s3
   1147c:	4314                	lw	a3,0(a4)
   1147e:	0057d613          	srl	a2,a5,0x5
   11482:	4785                	li	a5,1
   11484:	00c797b3          	sll	a5,a5,a2
   11488:	8d5d                	or	a0,a0,a5
   1148a:	ff870793          	add	a5,a4,-8
   1148e:	c45c                	sw	a5,12(s0)
   11490:	c414                	sw	a3,8(s0)
   11492:	00a9a223          	sw	a0,4(s3)
   11496:	c300                	sw	s0,0(a4)
   11498:	c6c0                	sw	s0,12(a3)
   1149a:	4025d793          	sra	a5,a1,0x2
   1149e:	4605                	li	a2,1
   114a0:	00f61633          	sll	a2,a2,a5
   114a4:	06c56c63          	bltu	a0,a2,1151c <_malloc_r+0x1a8>
   114a8:	00a677b3          	and	a5,a2,a0
   114ac:	ef81                	bnez	a5,114c4 <_malloc_r+0x150>
   114ae:	0606                	sll	a2,a2,0x1
   114b0:	99f1                	and	a1,a1,-4
   114b2:	00a677b3          	and	a5,a2,a0
   114b6:	0591                	add	a1,a1,4
   114b8:	e791                	bnez	a5,114c4 <_malloc_r+0x150>
   114ba:	0606                	sll	a2,a2,0x1
   114bc:	00a677b3          	and	a5,a2,a0
   114c0:	0591                	add	a1,a1,4
   114c2:	dfe5                	beqz	a5,114ba <_malloc_r+0x146>
   114c4:	483d                	li	a6,15
   114c6:	00359313          	sll	t1,a1,0x3
   114ca:	934e                	add	t1,t1,s3
   114cc:	851a                	mv	a0,t1
   114ce:	455c                	lw	a5,12(a0)
   114d0:	8e2e                	mv	t3,a1
   114d2:	1af50263          	beq	a0,a5,11676 <_malloc_r+0x302>
   114d6:	43d8                	lw	a4,4(a5)
   114d8:	843e                	mv	s0,a5
   114da:	47dc                	lw	a5,12(a5)
   114dc:	9b71                	and	a4,a4,-4
   114de:	409706b3          	sub	a3,a4,s1
   114e2:	1ad84163          	blt	a6,a3,11684 <_malloc_r+0x310>
   114e6:	fe06c6e3          	bltz	a3,114d2 <_malloc_r+0x15e>
   114ea:	9722                	add	a4,a4,s0
   114ec:	4354                	lw	a3,4(a4)
   114ee:	4410                	lw	a2,8(s0)
   114f0:	854a                	mv	a0,s2
   114f2:	0016e693          	or	a3,a3,1
   114f6:	c354                	sw	a3,4(a4)
   114f8:	c65c                	sw	a5,12(a2)
   114fa:	c790                	sw	a2,8(a5)
   114fc:	213d                	jal	1192a <__malloc_unlock>
   114fe:	00840513          	add	a0,s0,8
   11502:	b5e9                	j	113cc <_malloc_r+0x58>
   11504:	47b1                	li	a5,12
   11506:	00f92023          	sw	a5,0(s2)
   1150a:	4501                	li	a0,0
   1150c:	b5c1                	j	113cc <_malloc_r+0x58>
   1150e:	20000613          	li	a2,512
   11512:	04000593          	li	a1,64
   11516:	03f00813          	li	a6,63
   1151a:	bdd5                	j	1140e <_malloc_r+0x9a>
   1151c:	0089a403          	lw	s0,8(s3)
   11520:	c85a                	sw	s6,16(sp)
   11522:	405c                	lw	a5,4(s0)
   11524:	ffc7fb13          	and	s6,a5,-4
   11528:	009b6763          	bltu	s6,s1,11536 <_malloc_r+0x1c2>
   1152c:	409b0733          	sub	a4,s6,s1
   11530:	47bd                	li	a5,15
   11532:	0ae7c363          	blt	a5,a4,115d8 <_malloc_r+0x264>
   11536:	c266                	sw	s9,4(sp)
   11538:	f7018c93          	add	s9,gp,-144 # 1d780 <__malloc_sbrk_base>
   1153c:	000ca703          	lw	a4,0(s9)
   11540:	cc52                	sw	s4,24(sp)
   11542:	ca56                	sw	s5,20(sp)
   11544:	c65e                	sw	s7,12(sp)
   11546:	fcc1aa83          	lw	s5,-52(gp) # 1d7dc <__malloc_top_pad>
   1154a:	57fd                	li	a5,-1
   1154c:	01640a33          	add	s4,s0,s6
   11550:	9aa6                	add	s5,s5,s1
   11552:	2cf70763          	beq	a4,a5,11820 <_malloc_r+0x4ac>
   11556:	6785                	lui	a5,0x1
   11558:	07bd                	add	a5,a5,15 # 100f <exit-0xf085>
   1155a:	9abe                	add	s5,s5,a5
   1155c:	77fd                	lui	a5,0xfffff
   1155e:	00fafab3          	and	s5,s5,a5
   11562:	85d6                	mv	a1,s5
   11564:	854a                	mv	a0,s2
   11566:	375040ef          	jal	160da <_sbrk_r>
   1156a:	57fd                	li	a5,-1
   1156c:	8baa                	mv	s7,a0
   1156e:	32f50963          	beq	a0,a5,118a0 <_malloc_r+0x52c>
   11572:	c462                	sw	s8,8(sp)
   11574:	19456e63          	bltu	a0,s4,11710 <_malloc_r+0x39c>
   11578:	2bc18c13          	add	s8,gp,700 # 1dacc <__malloc_current_mallinfo>
   1157c:	000c2583          	lw	a1,0(s8)
   11580:	95d6                	add	a1,a1,s5
   11582:	00bc2023          	sw	a1,0(s8)
   11586:	872e                	mv	a4,a1
   11588:	1eaa1863          	bne	s4,a0,11778 <_malloc_r+0x404>
   1158c:	01451793          	sll	a5,a0,0x14
   11590:	1e079463          	bnez	a5,11778 <_malloc_r+0x404>
   11594:	0089ab83          	lw	s7,8(s3)
   11598:	015b07b3          	add	a5,s6,s5
   1159c:	0017e793          	or	a5,a5,1
   115a0:	00fba223          	sw	a5,4(s7)
   115a4:	fc818713          	add	a4,gp,-56 # 1d7d8 <__malloc_max_sbrked_mem>
   115a8:	4314                	lw	a3,0(a4)
   115aa:	00b6f363          	bgeu	a3,a1,115b0 <_malloc_r+0x23c>
   115ae:	c30c                	sw	a1,0(a4)
   115b0:	fc418713          	add	a4,gp,-60 # 1d7d4 <__malloc_max_total_mem>
   115b4:	4314                	lw	a3,0(a4)
   115b6:	00b6f363          	bgeu	a3,a1,115bc <_malloc_r+0x248>
   115ba:	c30c                	sw	a1,0(a4)
   115bc:	4c22                	lw	s8,8(sp)
   115be:	845e                	mv	s0,s7
   115c0:	9bf1                	and	a5,a5,-4
   115c2:	40978733          	sub	a4,a5,s1
   115c6:	2897eb63          	bltu	a5,s1,1185c <_malloc_r+0x4e8>
   115ca:	47bd                	li	a5,15
   115cc:	28e7d863          	bge	a5,a4,1185c <_malloc_r+0x4e8>
   115d0:	4a62                	lw	s4,24(sp)
   115d2:	4ad2                	lw	s5,20(sp)
   115d4:	4bb2                	lw	s7,12(sp)
   115d6:	4c92                	lw	s9,4(sp)
   115d8:	0014e793          	or	a5,s1,1
   115dc:	c05c                	sw	a5,4(s0)
   115de:	94a2                	add	s1,s1,s0
   115e0:	0099a423          	sw	s1,8(s3)
   115e4:	00176713          	or	a4,a4,1
   115e8:	854a                	mv	a0,s2
   115ea:	c0d8                	sw	a4,4(s1)
   115ec:	2e3d                	jal	1192a <__malloc_unlock>
   115ee:	50b2                	lw	ra,44(sp)
   115f0:	00840513          	add	a0,s0,8
   115f4:	5422                	lw	s0,40(sp)
   115f6:	4b42                	lw	s6,16(sp)
   115f8:	5492                	lw	s1,36(sp)
   115fa:	5902                	lw	s2,32(sp)
   115fc:	49f2                	lw	s3,28(sp)
   115fe:	6145                	add	sp,sp,48
   11600:	8082                	ret
   11602:	0049a503          	lw	a0,4(s3)
   11606:	bd51                	j	1149a <_malloc_r+0x126>
   11608:	4410                	lw	a2,8(s0)
   1160a:	b375                	j	113b6 <_malloc_r+0x42>
   1160c:	47c0                	lw	s0,12(a5)
   1160e:	0589                	add	a1,a1,2
   11610:	e28787e3          	beq	a5,s0,1143e <_malloc_r+0xca>
   11614:	bb69                	j	113ae <_malloc_r+0x3a>
   11616:	0097d713          	srl	a4,a5,0x9
   1161a:	4691                	li	a3,4
   1161c:	0ee6f263          	bgeu	a3,a4,11700 <_malloc_r+0x38c>
   11620:	46d1                	li	a3,20
   11622:	24e6e663          	bltu	a3,a4,1186e <_malloc_r+0x4fa>
   11626:	05c70613          	add	a2,a4,92
   1162a:	05b70693          	add	a3,a4,91
   1162e:	060e                	sll	a2,a2,0x3
   11630:	964e                	add	a2,a2,s3
   11632:	4218                	lw	a4,0(a2)
   11634:	1661                	add	a2,a2,-8
   11636:	00e61663          	bne	a2,a4,11642 <_malloc_r+0x2ce>
   1163a:	a2ed                	j	11824 <_malloc_r+0x4b0>
   1163c:	4718                	lw	a4,8(a4)
   1163e:	00e60663          	beq	a2,a4,1164a <_malloc_r+0x2d6>
   11642:	4354                	lw	a3,4(a4)
   11644:	9af1                	and	a3,a3,-4
   11646:	fed7ebe3          	bltu	a5,a3,1163c <_malloc_r+0x2c8>
   1164a:	4750                	lw	a2,12(a4)
   1164c:	c450                	sw	a2,12(s0)
   1164e:	c418                	sw	a4,8(s0)
   11650:	c600                	sw	s0,8(a2)
   11652:	c740                	sw	s0,12(a4)
   11654:	b599                	j	1149a <_malloc_r+0x126>
   11656:	4751                	li	a4,20
   11658:	0cf77363          	bgeu	a4,a5,1171e <_malloc_r+0x3aa>
   1165c:	05400713          	li	a4,84
   11660:	22f76363          	bltu	a4,a5,11886 <_malloc_r+0x512>
   11664:	00c4d793          	srl	a5,s1,0xc
   11668:	06f78593          	add	a1,a5,111 # fffff06f <__BSS_END__+0xfffe12d3>
   1166c:	06e78813          	add	a6,a5,110
   11670:	00359613          	sll	a2,a1,0x3
   11674:	bb69                	j	1140e <_malloc_r+0x9a>
   11676:	0e05                	add	t3,t3,1
   11678:	003e7793          	and	a5,t3,3
   1167c:	0521                	add	a0,a0,8
   1167e:	cfc5                	beqz	a5,11736 <_malloc_r+0x3c2>
   11680:	455c                	lw	a5,12(a0)
   11682:	bd81                	j	114d2 <_malloc_r+0x15e>
   11684:	4410                	lw	a2,8(s0)
   11686:	0014e593          	or	a1,s1,1
   1168a:	c04c                	sw	a1,4(s0)
   1168c:	c65c                	sw	a5,12(a2)
   1168e:	c790                	sw	a2,8(a5)
   11690:	94a2                	add	s1,s1,s0
   11692:	0099aa23          	sw	s1,20(s3)
   11696:	0099a823          	sw	s1,16(s3)
   1169a:	0016e793          	or	a5,a3,1
   1169e:	0114a623          	sw	a7,12(s1)
   116a2:	0114a423          	sw	a7,8(s1)
   116a6:	c0dc                	sw	a5,4(s1)
   116a8:	9722                	add	a4,a4,s0
   116aa:	854a                	mv	a0,s2
   116ac:	c314                	sw	a3,0(a4)
   116ae:	2cb5                	jal	1192a <__malloc_unlock>
   116b0:	00840513          	add	a0,s0,8
   116b4:	bb21                	j	113cc <_malloc_r+0x58>
   116b6:	97a2                	add	a5,a5,s0
   116b8:	43d8                	lw	a4,4(a5)
   116ba:	854a                	mv	a0,s2
   116bc:	00176713          	or	a4,a4,1
   116c0:	c3d8                	sw	a4,4(a5)
   116c2:	24a5                	jal	1192a <__malloc_unlock>
   116c4:	00840513          	add	a0,s0,8
   116c8:	b311                	j	113cc <_malloc_r+0x58>
   116ca:	0034d593          	srl	a1,s1,0x3
   116ce:	00848793          	add	a5,s1,8
   116d2:	b1e1                	j	1139a <_malloc_r+0x26>
   116d4:	0014e693          	or	a3,s1,1
   116d8:	c054                	sw	a3,4(s0)
   116da:	94a2                	add	s1,s1,s0
   116dc:	0099aa23          	sw	s1,20(s3)
   116e0:	0099a823          	sw	s1,16(s3)
   116e4:	00176693          	or	a3,a4,1
   116e8:	0114a623          	sw	a7,12(s1)
   116ec:	0114a423          	sw	a7,8(s1)
   116f0:	c0d4                	sw	a3,4(s1)
   116f2:	97a2                	add	a5,a5,s0
   116f4:	854a                	mv	a0,s2
   116f6:	c398                	sw	a4,0(a5)
   116f8:	2c0d                	jal	1192a <__malloc_unlock>
   116fa:	00840513          	add	a0,s0,8
   116fe:	b1f9                	j	113cc <_malloc_r+0x58>
   11700:	0067d713          	srl	a4,a5,0x6
   11704:	03970613          	add	a2,a4,57
   11708:	03870693          	add	a3,a4,56
   1170c:	060e                	sll	a2,a2,0x3
   1170e:	b70d                	j	11630 <_malloc_r+0x2bc>
   11710:	05340d63          	beq	s0,s3,1176a <_malloc_r+0x3f6>
   11714:	0089a403          	lw	s0,8(s3)
   11718:	4c22                	lw	s8,8(sp)
   1171a:	405c                	lw	a5,4(s0)
   1171c:	b555                	j	115c0 <_malloc_r+0x24c>
   1171e:	05c78593          	add	a1,a5,92
   11722:	05b78813          	add	a6,a5,91
   11726:	00359613          	sll	a2,a1,0x3
   1172a:	b1d5                	j	1140e <_malloc_r+0x9a>
   1172c:	00832783          	lw	a5,8(t1)
   11730:	15fd                	add	a1,a1,-1
   11732:	1e679563          	bne	a5,t1,1191c <_malloc_r+0x5a8>
   11736:	0035f793          	and	a5,a1,3
   1173a:	1361                	add	t1,t1,-8
   1173c:	fbe5                	bnez	a5,1172c <_malloc_r+0x3b8>
   1173e:	0049a703          	lw	a4,4(s3)
   11742:	fff64793          	not	a5,a2
   11746:	8ff9                	and	a5,a5,a4
   11748:	00f9a223          	sw	a5,4(s3)
   1174c:	0606                	sll	a2,a2,0x1
   1174e:	dcc7e7e3          	bltu	a5,a2,1151c <_malloc_r+0x1a8>
   11752:	dc0605e3          	beqz	a2,1151c <_malloc_r+0x1a8>
   11756:	00f67733          	and	a4,a2,a5
   1175a:	e711                	bnez	a4,11766 <_malloc_r+0x3f2>
   1175c:	0606                	sll	a2,a2,0x1
   1175e:	00f67733          	and	a4,a2,a5
   11762:	0e11                	add	t3,t3,4
   11764:	df65                	beqz	a4,1175c <_malloc_r+0x3e8>
   11766:	85f2                	mv	a1,t3
   11768:	bbb9                	j	114c6 <_malloc_r+0x152>
   1176a:	2bc18c13          	add	s8,gp,700 # 1dacc <__malloc_current_mallinfo>
   1176e:	000c2703          	lw	a4,0(s8)
   11772:	9756                	add	a4,a4,s5
   11774:	00ec2023          	sw	a4,0(s8)
   11778:	000ca683          	lw	a3,0(s9)
   1177c:	57fd                	li	a5,-1
   1177e:	12f68563          	beq	a3,a5,118a8 <_malloc_r+0x534>
   11782:	414b87b3          	sub	a5,s7,s4
   11786:	97ba                	add	a5,a5,a4
   11788:	00fc2023          	sw	a5,0(s8)
   1178c:	007bfc93          	and	s9,s7,7
   11790:	0a0c8263          	beqz	s9,11834 <_malloc_r+0x4c0>
   11794:	419b8bb3          	sub	s7,s7,s9
   11798:	6785                	lui	a5,0x1
   1179a:	07a1                	add	a5,a5,8 # 1008 <exit-0xf08c>
   1179c:	0ba1                	add	s7,s7,8
   1179e:	419785b3          	sub	a1,a5,s9
   117a2:	9ade                	add	s5,s5,s7
   117a4:	415585b3          	sub	a1,a1,s5
   117a8:	05d2                	sll	a1,a1,0x14
   117aa:	0145da13          	srl	s4,a1,0x14
   117ae:	85d2                	mv	a1,s4
   117b0:	854a                	mv	a0,s2
   117b2:	129040ef          	jal	160da <_sbrk_r>
   117b6:	57fd                	li	a5,-1
   117b8:	12f50463          	beq	a0,a5,118e0 <_malloc_r+0x56c>
   117bc:	41750533          	sub	a0,a0,s7
   117c0:	01450ab3          	add	s5,a0,s4
   117c4:	000c2703          	lw	a4,0(s8)
   117c8:	0179a423          	sw	s7,8(s3)
   117cc:	001ae793          	or	a5,s5,1
   117d0:	00ea05b3          	add	a1,s4,a4
   117d4:	00bc2023          	sw	a1,0(s8)
   117d8:	00fba223          	sw	a5,4(s7)
   117dc:	dd3404e3          	beq	s0,s3,115a4 <_malloc_r+0x230>
   117e0:	46bd                	li	a3,15
   117e2:	0766f963          	bgeu	a3,s6,11854 <_malloc_r+0x4e0>
   117e6:	4058                	lw	a4,4(s0)
   117e8:	ff4b0793          	add	a5,s6,-12
   117ec:	9be1                	and	a5,a5,-8
   117ee:	8b05                	and	a4,a4,1
   117f0:	8f5d                	or	a4,a4,a5
   117f2:	c058                	sw	a4,4(s0)
   117f4:	4615                	li	a2,5
   117f6:	00f40733          	add	a4,s0,a5
   117fa:	c350                	sw	a2,4(a4)
   117fc:	c710                	sw	a2,8(a4)
   117fe:	00f6e563          	bltu	a3,a5,11808 <_malloc_r+0x494>
   11802:	004ba783          	lw	a5,4(s7)
   11806:	bb79                	j	115a4 <_malloc_r+0x230>
   11808:	00840593          	add	a1,s0,8
   1180c:	854a                	mv	a0,s2
   1180e:	93fff0ef          	jal	1114c <_free_r>
   11812:	0089ab83          	lw	s7,8(s3)
   11816:	000c2583          	lw	a1,0(s8)
   1181a:	004ba783          	lw	a5,4(s7)
   1181e:	b359                	j	115a4 <_malloc_r+0x230>
   11820:	0ac1                	add	s5,s5,16
   11822:	b381                	j	11562 <_malloc_r+0x1ee>
   11824:	8689                	sra	a3,a3,0x2
   11826:	4785                	li	a5,1
   11828:	00d797b3          	sll	a5,a5,a3
   1182c:	8d5d                	or	a0,a0,a5
   1182e:	00a9a223          	sw	a0,4(s3)
   11832:	bd29                	j	1164c <_malloc_r+0x2d8>
   11834:	015b85b3          	add	a1,s7,s5
   11838:	40b005b3          	neg	a1,a1
   1183c:	05d2                	sll	a1,a1,0x14
   1183e:	0145da13          	srl	s4,a1,0x14
   11842:	85d2                	mv	a1,s4
   11844:	854a                	mv	a0,s2
   11846:	095040ef          	jal	160da <_sbrk_r>
   1184a:	57fd                	li	a5,-1
   1184c:	f6f518e3          	bne	a0,a5,117bc <_malloc_r+0x448>
   11850:	4a01                	li	s4,0
   11852:	bf8d                	j	117c4 <_malloc_r+0x450>
   11854:	4c22                	lw	s8,8(sp)
   11856:	4785                	li	a5,1
   11858:	00fba223          	sw	a5,4(s7)
   1185c:	854a                	mv	a0,s2
   1185e:	20f1                	jal	1192a <__malloc_unlock>
   11860:	4501                	li	a0,0
   11862:	4a62                	lw	s4,24(sp)
   11864:	4ad2                	lw	s5,20(sp)
   11866:	4b42                	lw	s6,16(sp)
   11868:	4bb2                	lw	s7,12(sp)
   1186a:	4c92                	lw	s9,4(sp)
   1186c:	b685                	j	113cc <_malloc_r+0x58>
   1186e:	05400693          	li	a3,84
   11872:	02e6ee63          	bltu	a3,a4,118ae <_malloc_r+0x53a>
   11876:	00c7d713          	srl	a4,a5,0xc
   1187a:	06f70613          	add	a2,a4,111
   1187e:	06e70693          	add	a3,a4,110
   11882:	060e                	sll	a2,a2,0x3
   11884:	b375                	j	11630 <_malloc_r+0x2bc>
   11886:	15400713          	li	a4,340
   1188a:	02f76e63          	bltu	a4,a5,118c6 <_malloc_r+0x552>
   1188e:	00f4d793          	srl	a5,s1,0xf
   11892:	07878593          	add	a1,a5,120
   11896:	07778813          	add	a6,a5,119
   1189a:	00359613          	sll	a2,a1,0x3
   1189e:	be85                	j	1140e <_malloc_r+0x9a>
   118a0:	0089a403          	lw	s0,8(s3)
   118a4:	405c                	lw	a5,4(s0)
   118a6:	bb29                	j	115c0 <_malloc_r+0x24c>
   118a8:	017ca023          	sw	s7,0(s9)
   118ac:	b5c5                	j	1178c <_malloc_r+0x418>
   118ae:	15400693          	li	a3,340
   118b2:	02e6ed63          	bltu	a3,a4,118ec <_malloc_r+0x578>
   118b6:	00f7d713          	srl	a4,a5,0xf
   118ba:	07870613          	add	a2,a4,120
   118be:	07770693          	add	a3,a4,119
   118c2:	060e                	sll	a2,a2,0x3
   118c4:	b3b5                	j	11630 <_malloc_r+0x2bc>
   118c6:	55400713          	li	a4,1364
   118ca:	02f76d63          	bltu	a4,a5,11904 <_malloc_r+0x590>
   118ce:	0124d793          	srl	a5,s1,0x12
   118d2:	07d78593          	add	a1,a5,125
   118d6:	07c78813          	add	a6,a5,124
   118da:	00359613          	sll	a2,a1,0x3
   118de:	be05                	j	1140e <_malloc_r+0x9a>
   118e0:	1ce1                	add	s9,s9,-8
   118e2:	9ae6                	add	s5,s5,s9
   118e4:	417a8ab3          	sub	s5,s5,s7
   118e8:	4a01                	li	s4,0
   118ea:	bde9                	j	117c4 <_malloc_r+0x450>
   118ec:	55400693          	li	a3,1364
   118f0:	02e6e163          	bltu	a3,a4,11912 <_malloc_r+0x59e>
   118f4:	0127d713          	srl	a4,a5,0x12
   118f8:	07d70613          	add	a2,a4,125
   118fc:	07c70693          	add	a3,a4,124
   11900:	060e                	sll	a2,a2,0x3
   11902:	b33d                	j	11630 <_malloc_r+0x2bc>
   11904:	3f800613          	li	a2,1016
   11908:	07f00593          	li	a1,127
   1190c:	07e00813          	li	a6,126
   11910:	bcfd                	j	1140e <_malloc_r+0x9a>
   11912:	3f800613          	li	a2,1016
   11916:	07e00693          	li	a3,126
   1191a:	bb19                	j	11630 <_malloc_r+0x2bc>
   1191c:	0049a783          	lw	a5,4(s3)
   11920:	b535                	j	1174c <_malloc_r+0x3d8>

00011922 <__malloc_lock>:
   11922:	fb018513          	add	a0,gp,-80 # 1d7c0 <__lock___malloc_recursive_mutex>
   11926:	d2cff06f          	j	10e52 <__retarget_lock_acquire_recursive>

0001192a <__malloc_unlock>:
   1192a:	fb018513          	add	a0,gp,-80 # 1d7c0 <__lock___malloc_recursive_mutex>
   1192e:	d30ff06f          	j	10e5e <__retarget_lock_release_recursive>

00011932 <_vfprintf_r>:
   11932:	7165                	add	sp,sp,-400
   11934:	18112623          	sw	ra,396(sp)
   11938:	c42e                	sw	a1,8(sp)
   1193a:	c632                	sw	a2,12(sp)
   1193c:	ca36                	sw	a3,20(sp)
   1193e:	17312e23          	sw	s3,380(sp)
   11942:	18812423          	sw	s0,392(sp)
   11946:	89aa                	mv	s3,a0
   11948:	786040ef          	jal	160ce <_localeconv_r>
   1194c:	411c                	lw	a5,0(a0)
   1194e:	853e                	mv	a0,a5
   11950:	da3e                	sw	a5,52(sp)
   11952:	1cb040ef          	jal	1631c <strlen>
   11956:	872a                	mv	a4,a0
   11958:	4621                	li	a2,8
   1195a:	4581                	li	a1,0
   1195c:	0908                	add	a0,sp,144
   1195e:	d83a                	sw	a4,48(sp)
   11960:	d00ff0ef          	jal	10e60 <memset>
   11964:	47b2                	lw	a5,12(sp)
   11966:	00098763          	beqz	s3,11974 <_vfprintf_r+0x42>
   1196a:	0349a703          	lw	a4,52(s3)
   1196e:	e319                	bnez	a4,11974 <_vfprintf_r+0x42>
   11970:	2560106f          	j	12bc6 <_vfprintf_r+0x1294>
   11974:	4722                	lw	a4,8(sp)
   11976:	5374                	lw	a3,100(a4)
   11978:	00c71703          	lh	a4,12(a4)
   1197c:	8a85                	and	a3,a3,1
   1197e:	e689                	bnez	a3,11988 <_vfprintf_r+0x56>
   11980:	20077693          	and	a3,a4,512
   11984:	640684e3          	beqz	a3,127cc <_vfprintf_r+0xe9a>
   11988:	01271693          	sll	a3,a4,0x12
   1198c:	0006ce63          	bltz	a3,119a8 <_vfprintf_r+0x76>
   11990:	4522                	lw	a0,8(sp)
   11992:	6589                	lui	a1,0x2
   11994:	7679                	lui	a2,0xffffe
   11996:	5174                	lw	a3,100(a0)
   11998:	8f4d                	or	a4,a4,a1
   1199a:	167d                	add	a2,a2,-1 # ffffdfff <__BSS_END__+0xfffe0263>
   1199c:	0742                	sll	a4,a4,0x10
   1199e:	8741                	sra	a4,a4,0x10
   119a0:	8ef1                	and	a3,a3,a2
   119a2:	00e51623          	sh	a4,12(a0)
   119a6:	d174                	sw	a3,100(a0)
   119a8:	00877693          	and	a3,a4,8
   119ac:	1c068c63          	beqz	a3,11b84 <_vfprintf_r+0x252>
   119b0:	46a2                	lw	a3,8(sp)
   119b2:	4a94                	lw	a3,16(a3)
   119b4:	1c068863          	beqz	a3,11b84 <_vfprintf_r+0x252>
   119b8:	01a77693          	and	a3,a4,26
   119bc:	4629                	li	a2,10
   119be:	1ec68463          	beq	a3,a2,11ba6 <_vfprintf_r+0x274>
   119c2:	1178                	add	a4,sp,172
   119c4:	17712623          	sw	s7,364(sp)
   119c8:	17812423          	sw	s8,360(sp)
   119cc:	15b12e23          	sw	s11,348(sp)
   119d0:	18912223          	sw	s1,388(sp)
   119d4:	19212023          	sw	s2,384(sp)
   119d8:	17412c23          	sw	s4,376(sp)
   119dc:	17512a23          	sw	s5,372(sp)
   119e0:	17612823          	sw	s6,368(sp)
   119e4:	17912223          	sw	s9,356(sp)
   119e8:	17a12023          	sw	s10,352(sp)
   119ec:	d13a                	sw	a4,160(sp)
   119ee:	d502                	sw	zero,168(sp)
   119f0:	d302                	sw	zero,164(sp)
   119f2:	cc02                	sw	zero,24(sp)
   119f4:	d402                	sw	zero,40(sp)
   119f6:	d602                	sw	zero,44(sp)
   119f8:	843a                	mv	s0,a4
   119fa:	dc02                	sw	zero,56(sp)
   119fc:	c082                	sw	zero,64(sp)
   119fe:	de02                	sw	zero,60(sp)
   11a00:	c882                	sw	zero,80(sp)
   11a02:	c682                	sw	zero,76(sp)
   11a04:	c602                	sw	zero,12(sp)
   11a06:	d3818b93          	add	s7,gp,-712 # 1d548 <__global_locale>
   11a0a:	02500d93          	li	s11,37
   11a0e:	8c3e                	mv	s8,a5
   11a10:	8962                	mv	s2,s8
   11a12:	0e4ba483          	lw	s1,228(s7)
   11a16:	6a0040ef          	jal	160b6 <__locale_mb_cur_max>
   11a1a:	86aa                	mv	a3,a0
   11a1c:	0918                	add	a4,sp,144
   11a1e:	864a                	mv	a2,s2
   11a20:	010c                	add	a1,sp,128
   11a22:	854e                	mv	a0,s3
   11a24:	9482                	jalr	s1
   11a26:	1e050a63          	beqz	a0,11c1a <_vfprintf_r+0x2e8>
   11a2a:	1e054063          	bltz	a0,11c0a <_vfprintf_r+0x2d8>
   11a2e:	478a                	lw	a5,128(sp)
   11a30:	01b78463          	beq	a5,s11,11a38 <_vfprintf_r+0x106>
   11a34:	992a                	add	s2,s2,a0
   11a36:	bff1                	j	11a12 <_vfprintf_r+0xe0>
   11a38:	84aa                	mv	s1,a0
   11a3a:	41890cb3          	sub	s9,s2,s8
   11a3e:	1f891363          	bne	s2,s8,11c24 <_vfprintf_r+0x2f2>
   11a42:	537d                	li	t1,-1
   11a44:	4e81                	li	t4,0
   11a46:	4f01                	li	t5,0
   11a48:	00194e03          	lbu	t3,1(s2)
   11a4c:	06010ba3          	sb	zero,119(sp)
   11a50:	0905                	add	s2,s2,1
   11a52:	05a00493          	li	s1,90
   11a56:	8a7a                	mv	s4,t5
   11a58:	8af6                	mv	s5,t4
   11a5a:	8b1a                	mv	s6,t1
   11a5c:	0905                	add	s2,s2,1
   11a5e:	fe0e0793          	add	a5,t3,-32
   11a62:	04f4e063          	bltu	s1,a5,11aa2 <_vfprintf_r+0x170>
   11a66:	0000b717          	auipc	a4,0xb
   11a6a:	8a670713          	add	a4,a4,-1882 # 1c30c <__clzsi2+0x366>
   11a6e:	078a                	sll	a5,a5,0x2
   11a70:	97ba                	add	a5,a5,a4
   11a72:	439c                	lw	a5,0(a5)
   11a74:	97ba                	add	a5,a5,a4
   11a76:	8782                	jr	a5
   11a78:	4a81                	li	s5,0
   11a7a:	fd0e0713          	add	a4,t3,-48
   11a7e:	46a5                	li	a3,9
   11a80:	00094e03          	lbu	t3,0(s2)
   11a84:	002a9793          	sll	a5,s5,0x2
   11a88:	97d6                	add	a5,a5,s5
   11a8a:	0786                	sll	a5,a5,0x1
   11a8c:	00f70ab3          	add	s5,a4,a5
   11a90:	fd0e0713          	add	a4,t3,-48
   11a94:	0905                	add	s2,s2,1
   11a96:	fee6f5e3          	bgeu	a3,a4,11a80 <_vfprintf_r+0x14e>
   11a9a:	fe0e0793          	add	a5,t3,-32
   11a9e:	fcf4f4e3          	bgeu	s1,a5,11a66 <_vfprintf_r+0x134>
   11aa2:	8f52                	mv	t5,s4
   11aa4:	8ed6                	mv	t4,s5
   11aa6:	1a0e0263          	beqz	t3,11c4a <_vfprintf_r+0x318>
   11aaa:	0fc10623          	sb	t3,236(sp)
   11aae:	06010ba3          	sb	zero,119(sp)
   11ab2:	4c85                	li	s9,1
   11ab4:	4601                	li	a2,0
   11ab6:	c802                	sw	zero,16(sp)
   11ab8:	4b05                	li	s6,1
   11aba:	4301                	li	t1,0
   11abc:	d202                	sw	zero,36(sp)
   11abe:	d002                	sw	zero,32(sp)
   11ac0:	4a01                	li	s4,0
   11ac2:	0ec10c13          	add	s8,sp,236
   11ac6:	002f7293          	and	t0,t5,2
   11aca:	00028363          	beqz	t0,11ad0 <_vfprintf_r+0x19e>
   11ace:	0c89                	add	s9,s9,2
   11ad0:	084f7d13          	and	s10,t5,132
   11ad4:	54aa                	lw	s1,168(sp)
   11ad6:	000d1663          	bnez	s10,11ae2 <_vfprintf_r+0x1b0>
   11ada:	419e8733          	sub	a4,t4,s9
   11ade:	2ce04563          	bgtz	a4,11da8 <_vfprintf_r+0x476>
   11ae2:	ce19                	beqz	a2,11b00 <_vfprintf_r+0x1ce>
   11ae4:	571a                	lw	a4,164(sp)
   11ae6:	07710613          	add	a2,sp,119
   11aea:	0485                	add	s1,s1,1
   11aec:	0705                	add	a4,a4,1
   11aee:	4785                	li	a5,1
   11af0:	c010                	sw	a2,0(s0)
   11af2:	c05c                	sw	a5,4(s0)
   11af4:	d526                	sw	s1,168(sp)
   11af6:	d33a                	sw	a4,164(sp)
   11af8:	461d                	li	a2,7
   11afa:	0421                	add	s0,s0,8
   11afc:	32e64f63          	blt	a2,a4,11e3a <_vfprintf_r+0x508>
   11b00:	00028f63          	beqz	t0,11b1e <_vfprintf_r+0x1ec>
   11b04:	571a                	lw	a4,164(sp)
   11b06:	18b0                	add	a2,sp,120
   11b08:	c010                	sw	a2,0(s0)
   11b0a:	0489                	add	s1,s1,2
   11b0c:	4609                	li	a2,2
   11b0e:	0705                	add	a4,a4,1
   11b10:	c050                	sw	a2,4(s0)
   11b12:	d526                	sw	s1,168(sp)
   11b14:	d33a                	sw	a4,164(sp)
   11b16:	461d                	li	a2,7
   11b18:	0421                	add	s0,s0,8
   11b1a:	28e646e3          	blt	a2,a4,125a6 <_vfprintf_r+0xc74>
   11b1e:	08000713          	li	a4,128
   11b22:	06ed06e3          	beq	s10,a4,1238e <_vfprintf_r+0xa5c>
   11b26:	41630ab3          	sub	s5,t1,s6
   11b2a:	11504de3          	bgtz	s5,12444 <_vfprintf_r+0xb12>
   11b2e:	100f7713          	and	a4,t5,256
   11b32:	70071063          	bnez	a4,12232 <_vfprintf_r+0x900>
   11b36:	579a                	lw	a5,164(sp)
   11b38:	94da                	add	s1,s1,s6
   11b3a:	01842023          	sw	s8,0(s0)
   11b3e:	0785                	add	a5,a5,1
   11b40:	01642223          	sw	s6,4(s0)
   11b44:	d526                	sw	s1,168(sp)
   11b46:	d33e                	sw	a5,164(sp)
   11b48:	471d                	li	a4,7
   11b4a:	34f74c63          	blt	a4,a5,11ea2 <_vfprintf_r+0x570>
   11b4e:	0421                	add	s0,s0,8
   11b50:	004f7f13          	and	t5,t5,4
   11b54:	000f0663          	beqz	t5,11b60 <_vfprintf_r+0x22e>
   11b58:	419e8d33          	sub	s10,t4,s9
   11b5c:	37a04163          	bgtz	s10,11ebe <_vfprintf_r+0x58c>
   11b60:	019ed363          	bge	t4,s9,11b66 <_vfprintf_r+0x234>
   11b64:	8ee6                	mv	t4,s9
   11b66:	47b2                	lw	a5,12(sp)
   11b68:	97f6                	add	a5,a5,t4
   11b6a:	c63e                	sw	a5,12(sp)
   11b6c:	10049063          	bnez	s1,11c6c <_vfprintf_r+0x33a>
   11b70:	47c2                	lw	a5,16(sp)
   11b72:	d302                	sw	zero,164(sp)
   11b74:	c789                	beqz	a5,11b7e <_vfprintf_r+0x24c>
   11b76:	45c2                	lw	a1,16(sp)
   11b78:	854e                	mv	a0,s3
   11b7a:	dd2ff0ef          	jal	1114c <_free_r>
   11b7e:	1160                	add	s0,sp,172
   11b80:	8c4a                	mv	s8,s2
   11b82:	b579                	j	11a10 <_vfprintf_r+0xde>
   11b84:	4422                	lw	s0,8(sp)
   11b86:	854e                	mv	a0,s3
   11b88:	c63e                	sw	a5,12(sp)
   11b8a:	85a2                	mv	a1,s0
   11b8c:	7ac030ef          	jal	15338 <__swsetup_r>
   11b90:	c119                	beqz	a0,11b96 <_vfprintf_r+0x264>
   11b92:	2e50106f          	j	13676 <_vfprintf_r+0x1d44>
   11b96:	00c41703          	lh	a4,12(s0)
   11b9a:	4629                	li	a2,10
   11b9c:	47b2                	lw	a5,12(sp)
   11b9e:	01a77693          	and	a3,a4,26
   11ba2:	e2c690e3          	bne	a3,a2,119c2 <_vfprintf_r+0x90>
   11ba6:	4622                	lw	a2,8(sp)
   11ba8:	00e61683          	lh	a3,14(a2)
   11bac:	e006cbe3          	bltz	a3,119c2 <_vfprintf_r+0x90>
   11bb0:	5274                	lw	a3,100(a2)
   11bb2:	8a85                	and	a3,a3,1
   11bb4:	e691                	bnez	a3,11bc0 <_vfprintf_r+0x28e>
   11bb6:	20077713          	and	a4,a4,512
   11bba:	e319                	bnez	a4,11bc0 <_vfprintf_r+0x28e>
   11bbc:	4c80106f          	j	13084 <_vfprintf_r+0x1752>
   11bc0:	46d2                	lw	a3,20(sp)
   11bc2:	45a2                	lw	a1,8(sp)
   11bc4:	854e                	mv	a0,s3
   11bc6:	863e                	mv	a2,a5
   11bc8:	56f010ef          	jal	13936 <__sbprintf>
   11bcc:	18c12083          	lw	ra,396(sp)
   11bd0:	18812403          	lw	s0,392(sp)
   11bd4:	c62a                	sw	a0,12(sp)
   11bd6:	4532                	lw	a0,12(sp)
   11bd8:	17c12983          	lw	s3,380(sp)
   11bdc:	6159                	add	sp,sp,400
   11bde:	8082                	ret
   11be0:	854e                	mv	a0,s3
   11be2:	4ec040ef          	jal	160ce <_localeconv_r>
   11be6:	415c                	lw	a5,4(a0)
   11be8:	853e                	mv	a0,a5
   11bea:	c6be                	sw	a5,76(sp)
   11bec:	730040ef          	jal	1631c <strlen>
   11bf0:	87aa                	mv	a5,a0
   11bf2:	854e                	mv	a0,s3
   11bf4:	8cbe                	mv	s9,a5
   11bf6:	c8be                	sw	a5,80(sp)
   11bf8:	4d6040ef          	jal	160ce <_localeconv_r>
   11bfc:	4518                	lw	a4,8(a0)
   11bfe:	de3a                	sw	a4,60(sp)
   11c00:	480c93e3          	bnez	s9,12886 <_vfprintf_r+0xf54>
   11c04:	00094e03          	lbu	t3,0(s2)
   11c08:	bd91                	j	11a5c <_vfprintf_r+0x12a>
   11c0a:	4621                	li	a2,8
   11c0c:	4581                	li	a1,0
   11c0e:	0908                	add	a0,sp,144
   11c10:	a50ff0ef          	jal	10e60 <memset>
   11c14:	4505                	li	a0,1
   11c16:	992a                	add	s2,s2,a0
   11c18:	bbed                	j	11a12 <_vfprintf_r+0xe0>
   11c1a:	84aa                	mv	s1,a0
   11c1c:	41890cb3          	sub	s9,s2,s8
   11c20:	03890563          	beq	s2,s8,11c4a <_vfprintf_r+0x318>
   11c24:	56aa                	lw	a3,168(sp)
   11c26:	571a                	lw	a4,164(sp)
   11c28:	01842023          	sw	s8,0(s0)
   11c2c:	96e6                	add	a3,a3,s9
   11c2e:	0705                	add	a4,a4,1
   11c30:	01942223          	sw	s9,4(s0)
   11c34:	d536                	sw	a3,168(sp)
   11c36:	d33a                	sw	a4,164(sp)
   11c38:	469d                	li	a3,7
   11c3a:	0421                	add	s0,s0,8
   11c3c:	02e6c063          	blt	a3,a4,11c5c <_vfprintf_r+0x32a>
   11c40:	47b2                	lw	a5,12(sp)
   11c42:	97e6                	add	a5,a5,s9
   11c44:	c63e                	sw	a5,12(sp)
   11c46:	de049ee3          	bnez	s1,11a42 <_vfprintf_r+0x110>
   11c4a:	57aa                	lw	a5,168(sp)
   11c4c:	c399                	beqz	a5,11c52 <_vfprintf_r+0x320>
   11c4e:	3c60106f          	j	13014 <_vfprintf_r+0x16e2>
   11c52:	47a2                	lw	a5,8(sp)
   11c54:	d302                	sw	zero,164(sp)
   11c56:	00c79783          	lh	a5,12(a5)
   11c5a:	a815                	j	11c8e <_vfprintf_r+0x35c>
   11c5c:	45a2                	lw	a1,8(sp)
   11c5e:	1110                	add	a2,sp,160
   11c60:	854e                	mv	a0,s3
   11c62:	641010ef          	jal	13aa2 <__sprint_r>
   11c66:	e10d                	bnez	a0,11c88 <_vfprintf_r+0x356>
   11c68:	1160                	add	s0,sp,172
   11c6a:	bfd9                	j	11c40 <_vfprintf_r+0x30e>
   11c6c:	45a2                	lw	a1,8(sp)
   11c6e:	1110                	add	a2,sp,160
   11c70:	854e                	mv	a0,s3
   11c72:	631010ef          	jal	13aa2 <__sprint_r>
   11c76:	ee050de3          	beqz	a0,11b70 <_vfprintf_r+0x23e>
   11c7a:	4f42                	lw	t5,16(sp)
   11c7c:	000f0663          	beqz	t5,11c88 <_vfprintf_r+0x356>
   11c80:	85fa                	mv	a1,t5
   11c82:	854e                	mv	a0,s3
   11c84:	cc8ff0ef          	jal	1114c <_free_r>
   11c88:	47a2                	lw	a5,8(sp)
   11c8a:	00c79783          	lh	a5,12(a5)
   11c8e:	4722                	lw	a4,8(sp)
   11c90:	5378                	lw	a4,100(a4)
   11c92:	8b05                	and	a4,a4,1
   11c94:	2a070563          	beqz	a4,11f3e <_vfprintf_r+0x60c>
   11c98:	0407f793          	and	a5,a5,64
   11c9c:	18412483          	lw	s1,388(sp)
   11ca0:	18012903          	lw	s2,384(sp)
   11ca4:	17812a03          	lw	s4,376(sp)
   11ca8:	17412a83          	lw	s5,372(sp)
   11cac:	17012b03          	lw	s6,368(sp)
   11cb0:	16c12b83          	lw	s7,364(sp)
   11cb4:	16812c03          	lw	s8,360(sp)
   11cb8:	16412c83          	lw	s9,356(sp)
   11cbc:	16012d03          	lw	s10,352(sp)
   11cc0:	15c12d83          	lw	s11,348(sp)
   11cc4:	c399                	beqz	a5,11cca <_vfprintf_r+0x398>
   11cc6:	1cd0106f          	j	13692 <_vfprintf_r+0x1d60>
   11cca:	18c12083          	lw	ra,396(sp)
   11cce:	18812403          	lw	s0,392(sp)
   11cd2:	4532                	lw	a0,12(sp)
   11cd4:	17c12983          	lw	s3,380(sp)
   11cd8:	6159                	add	sp,sp,400
   11cda:	8082                	ret
   11cdc:	008a7713          	and	a4,s4,8
   11ce0:	8f52                	mv	t5,s4
   11ce2:	8ed6                	mv	t4,s5
   11ce4:	835a                	mv	t1,s6
   11ce6:	3a071de3          	bnez	a4,128a0 <_vfprintf_r+0xf6e>
   11cea:	47d2                	lw	a5,20(sp)
   11cec:	00778a93          	add	s5,a5,7
   11cf0:	ff8afa93          	and	s5,s5,-8
   11cf4:	000aa783          	lw	a5,0(s5)
   11cf8:	d43e                	sw	a5,40(sp)
   11cfa:	004aa783          	lw	a5,4(s5)
   11cfe:	d63e                	sw	a5,44(sp)
   11d00:	008a8793          	add	a5,s5,8
   11d04:	ca3e                	sw	a5,20(sp)
   11d06:	5a32                	lw	s4,44(sp)
   11d08:	0000c717          	auipc	a4,0xc
   11d0c:	9d070713          	add	a4,a4,-1584 # 1d6d8 <__SDATA_BEGIN__>
   11d10:	00072c83          	lw	s9,0(a4)
   11d14:	00472d03          	lw	s10,4(a4)
   11d18:	5aa2                	lw	s5,40(sp)
   11d1a:	001a1493          	sll	s1,s4,0x1
   11d1e:	8085                	srl	s1,s1,0x1
   11d20:	8556                	mv	a0,s5
   11d22:	85a6                	mv	a1,s1
   11d24:	8666                	mv	a2,s9
   11d26:	86ea                	mv	a3,s10
   11d28:	c29a                	sw	t1,68(sp)
   11d2a:	d276                	sw	t4,36(sp)
   11d2c:	d072                	sw	t3,32(sp)
   11d2e:	c87a                	sw	t5,16(sp)
   11d30:	64f090ef          	jal	1bb7e <__unorddf2>
   11d34:	4f42                	lw	t5,16(sp)
   11d36:	5e02                	lw	t3,32(sp)
   11d38:	5e92                	lw	t4,36(sp)
   11d3a:	4316                	lw	t1,68(sp)
   11d3c:	68051be3          	bnez	a0,12bd2 <_vfprintf_r+0x12a0>
   11d40:	8556                	mv	a0,s5
   11d42:	85a6                	mv	a1,s1
   11d44:	8666                	mv	a2,s9
   11d46:	86ea                	mv	a3,s10
   11d48:	108090ef          	jal	1ae50 <__ledf2>
   11d4c:	4f42                	lw	t5,16(sp)
   11d4e:	5e02                	lw	t3,32(sp)
   11d50:	5e92                	lw	t4,36(sp)
   11d52:	4316                	lw	t1,68(sp)
   11d54:	66a05fe3          	blez	a0,12bd2 <_vfprintf_r+0x12a0>
   11d58:	8556                	mv	a0,s5
   11d5a:	85d2                	mv	a1,s4
   11d5c:	4601                	li	a2,0
   11d5e:	4681                	li	a3,0
   11d60:	0f0090ef          	jal	1ae50 <__ledf2>
   11d64:	4f42                	lw	t5,16(sp)
   11d66:	5e02                	lw	t3,32(sp)
   11d68:	5e92                	lw	t4,36(sp)
   11d6a:	00055463          	bgez	a0,11d72 <_vfprintf_r+0x440>
   11d6e:	74e0106f          	j	134bc <_vfprintf_r+0x1b8a>
   11d72:	07714603          	lbu	a2,119(sp)
   11d76:	04700713          	li	a4,71
   11d7a:	0000ac17          	auipc	s8,0xa
   11d7e:	2bac0c13          	add	s8,s8,698 # 1c034 <__clzsi2+0x8e>
   11d82:	01c74663          	blt	a4,t3,11d8e <_vfprintf_r+0x45c>
   11d86:	0000ac17          	auipc	s8,0xa
   11d8a:	2aac0c13          	add	s8,s8,682 # 1c030 <__clzsi2+0x8a>
   11d8e:	c802                	sw	zero,16(sp)
   11d90:	d202                	sw	zero,36(sp)
   11d92:	d002                	sw	zero,32(sp)
   11d94:	f7ff7f13          	and	t5,t5,-129
   11d98:	4c8d                	li	s9,3
   11d9a:	4b0d                	li	s6,3
   11d9c:	4301                	li	t1,0
   11d9e:	4a01                	li	s4,0
   11da0:	d20603e3          	beqz	a2,11ac6 <_vfprintf_r+0x194>
   11da4:	0c85                	add	s9,s9,1
   11da6:	b305                	j	11ac6 <_vfprintf_r+0x194>
   11da8:	45c1                	li	a1,16
   11daa:	561a                	lw	a2,164(sp)
   11dac:	0000aa97          	auipc	s5,0xa
   11db0:	774a8a93          	add	s5,s5,1908 # 1c520 <blanks.1>
   11db4:	06e5d563          	bge	a1,a4,11e1e <_vfprintf_r+0x4ec>
   11db8:	87a2                	mv	a5,s0
   11dba:	86a6                	mv	a3,s1
   11dbc:	48c1                	li	a7,16
   11dbe:	84d6                	mv	s1,s5
   11dc0:	439d                	li	t2,7
   11dc2:	8ad2                	mv	s5,s4
   11dc4:	c296                	sw	t0,68(sp)
   11dc6:	c4fa                	sw	t5,72(sp)
   11dc8:	caf2                	sw	t3,84(sp)
   11dca:	ccf6                	sw	t4,88(sp)
   11dcc:	843a                	mv	s0,a4
   11dce:	8a1a                	mv	s4,t1
   11dd0:	a021                	j	11dd8 <_vfprintf_r+0x4a6>
   11dd2:	1441                	add	s0,s0,-16
   11dd4:	0288db63          	bge	a7,s0,11e0a <_vfprintf_r+0x4d8>
   11dd8:	06c1                	add	a3,a3,16
   11dda:	0605                	add	a2,a2,1
   11ddc:	c384                	sw	s1,0(a5)
   11dde:	0117a223          	sw	a7,4(a5)
   11de2:	d536                	sw	a3,168(sp)
   11de4:	d332                	sw	a2,164(sp)
   11de6:	07a1                	add	a5,a5,8
   11de8:	fec3d5e3          	bge	t2,a2,11dd2 <_vfprintf_r+0x4a0>
   11dec:	45a2                	lw	a1,8(sp)
   11dee:	1110                	add	a2,sp,160
   11df0:	854e                	mv	a0,s3
   11df2:	4b1010ef          	jal	13aa2 <__sprint_r>
   11df6:	e80512e3          	bnez	a0,11c7a <_vfprintf_r+0x348>
   11dfa:	48c1                	li	a7,16
   11dfc:	1441                	add	s0,s0,-16
   11dfe:	56aa                	lw	a3,168(sp)
   11e00:	561a                	lw	a2,164(sp)
   11e02:	117c                	add	a5,sp,172
   11e04:	439d                	li	t2,7
   11e06:	fc88c9e3          	blt	a7,s0,11dd8 <_vfprintf_r+0x4a6>
   11e0a:	4296                	lw	t0,68(sp)
   11e0c:	4f26                	lw	t5,72(sp)
   11e0e:	4e56                	lw	t3,84(sp)
   11e10:	4ee6                	lw	t4,88(sp)
   11e12:	8352                	mv	t1,s4
   11e14:	8722                	mv	a4,s0
   11e16:	8a56                	mv	s4,s5
   11e18:	843e                	mv	s0,a5
   11e1a:	8aa6                	mv	s5,s1
   11e1c:	84b6                	mv	s1,a3
   11e1e:	94ba                	add	s1,s1,a4
   11e20:	0605                	add	a2,a2,1
   11e22:	c058                	sw	a4,4(s0)
   11e24:	01542023          	sw	s5,0(s0)
   11e28:	d526                	sw	s1,168(sp)
   11e2a:	d332                	sw	a2,164(sp)
   11e2c:	471d                	li	a4,7
   11e2e:	56c745e3          	blt	a4,a2,12b98 <_vfprintf_r+0x1266>
   11e32:	07714603          	lbu	a2,119(sp)
   11e36:	0421                	add	s0,s0,8
   11e38:	b16d                	j	11ae2 <_vfprintf_r+0x1b0>
   11e3a:	45a2                	lw	a1,8(sp)
   11e3c:	1110                	add	a2,sp,160
   11e3e:	854e                	mv	a0,s3
   11e40:	ce9a                	sw	t1,92(sp)
   11e42:	ccf6                	sw	t4,88(sp)
   11e44:	caf2                	sw	t3,84(sp)
   11e46:	c4fa                	sw	t5,72(sp)
   11e48:	c296                	sw	t0,68(sp)
   11e4a:	459010ef          	jal	13aa2 <__sprint_r>
   11e4e:	e20516e3          	bnez	a0,11c7a <_vfprintf_r+0x348>
   11e52:	54aa                	lw	s1,168(sp)
   11e54:	4376                	lw	t1,92(sp)
   11e56:	4ee6                	lw	t4,88(sp)
   11e58:	4e56                	lw	t3,84(sp)
   11e5a:	4f26                	lw	t5,72(sp)
   11e5c:	4296                	lw	t0,68(sp)
   11e5e:	1160                	add	s0,sp,172
   11e60:	b145                	j	11b00 <_vfprintf_r+0x1ce>
   11e62:	5752                	lw	a4,52(sp)
   11e64:	57c2                	lw	a5,48(sp)
   11e66:	469d                	li	a3,7
   11e68:	c018                	sw	a4,0(s0)
   11e6a:	571a                	lw	a4,164(sp)
   11e6c:	009785b3          	add	a1,a5,s1
   11e70:	c05c                	sw	a5,4(s0)
   11e72:	0705                	add	a4,a4,1
   11e74:	d52e                	sw	a1,168(sp)
   11e76:	d33a                	sw	a4,164(sp)
   11e78:	0421                	add	s0,s0,8
   11e7a:	00e6d463          	bge	a3,a4,11e82 <_vfprintf_r+0x550>
   11e7e:	1e20106f          	j	13060 <_vfprintf_r+0x172e>
   11e82:	00065463          	bgez	a2,11e8a <_vfprintf_r+0x558>
   11e86:	0150106f          	j	1369a <_vfprintf_r+0x1d68>
   11e8a:	47e2                	lw	a5,24(sp)
   11e8c:	0705                	add	a4,a4,1
   11e8e:	01842023          	sw	s8,0(s0)
   11e92:	00b784b3          	add	s1,a5,a1
   11e96:	c05c                	sw	a5,4(s0)
   11e98:	d526                	sw	s1,168(sp)
   11e9a:	d33a                	sw	a4,164(sp)
   11e9c:	479d                	li	a5,7
   11e9e:	cae7d8e3          	bge	a5,a4,11b4e <_vfprintf_r+0x21c>
   11ea2:	45a2                	lw	a1,8(sp)
   11ea4:	1110                	add	a2,sp,160
   11ea6:	854e                	mv	a0,s3
   11ea8:	d276                	sw	t4,36(sp)
   11eaa:	d07a                	sw	t5,32(sp)
   11eac:	3f7010ef          	jal	13aa2 <__sprint_r>
   11eb0:	dc0515e3          	bnez	a0,11c7a <_vfprintf_r+0x348>
   11eb4:	54aa                	lw	s1,168(sp)
   11eb6:	5f02                	lw	t5,32(sp)
   11eb8:	5e92                	lw	t4,36(sp)
   11eba:	1160                	add	s0,sp,172
   11ebc:	b951                	j	11b50 <_vfprintf_r+0x21e>
   11ebe:	4741                	li	a4,16
   11ec0:	579a                	lw	a5,164(sp)
   11ec2:	0000aa97          	auipc	s5,0xa
   11ec6:	65ea8a93          	add	s5,s5,1630 # 1c520 <blanks.1>
   11eca:	05a75463          	bge	a4,s10,11f12 <_vfprintf_r+0x5e0>
   11ece:	8c56                	mv	s8,s5
   11ed0:	4b41                	li	s6,16
   11ed2:	4a1d                	li	s4,7
   11ed4:	8af6                	mv	s5,t4
   11ed6:	a021                	j	11ede <_vfprintf_r+0x5ac>
   11ed8:	1d41                	add	s10,s10,-16
   11eda:	03ab5a63          	bge	s6,s10,11f0e <_vfprintf_r+0x5dc>
   11ede:	04c1                	add	s1,s1,16
   11ee0:	0785                	add	a5,a5,1
   11ee2:	01842023          	sw	s8,0(s0)
   11ee6:	01642223          	sw	s6,4(s0)
   11eea:	d526                	sw	s1,168(sp)
   11eec:	d33e                	sw	a5,164(sp)
   11eee:	0421                	add	s0,s0,8
   11ef0:	fefa54e3          	bge	s4,a5,11ed8 <_vfprintf_r+0x5a6>
   11ef4:	45a2                	lw	a1,8(sp)
   11ef6:	1110                	add	a2,sp,160
   11ef8:	854e                	mv	a0,s3
   11efa:	3a9010ef          	jal	13aa2 <__sprint_r>
   11efe:	d6051ee3          	bnez	a0,11c7a <_vfprintf_r+0x348>
   11f02:	1d41                	add	s10,s10,-16
   11f04:	54aa                	lw	s1,168(sp)
   11f06:	579a                	lw	a5,164(sp)
   11f08:	1160                	add	s0,sp,172
   11f0a:	fdab4ae3          	blt	s6,s10,11ede <_vfprintf_r+0x5ac>
   11f0e:	8ed6                	mv	t4,s5
   11f10:	8ae2                	mv	s5,s8
   11f12:	94ea                	add	s1,s1,s10
   11f14:	0785                	add	a5,a5,1
   11f16:	01542023          	sw	s5,0(s0)
   11f1a:	01a42223          	sw	s10,4(s0)
   11f1e:	d526                	sw	s1,168(sp)
   11f20:	d33e                	sw	a5,164(sp)
   11f22:	471d                	li	a4,7
   11f24:	c2f75ee3          	bge	a4,a5,11b60 <_vfprintf_r+0x22e>
   11f28:	45a2                	lw	a1,8(sp)
   11f2a:	1110                	add	a2,sp,160
   11f2c:	854e                	mv	a0,s3
   11f2e:	d076                	sw	t4,32(sp)
   11f30:	373010ef          	jal	13aa2 <__sprint_r>
   11f34:	d40513e3          	bnez	a0,11c7a <_vfprintf_r+0x348>
   11f38:	54aa                	lw	s1,168(sp)
   11f3a:	5e82                	lw	t4,32(sp)
   11f3c:	b115                	j	11b60 <_vfprintf_r+0x22e>
   11f3e:	2007f713          	and	a4,a5,512
   11f42:	d4071be3          	bnez	a4,11c98 <_vfprintf_r+0x366>
   11f46:	4422                	lw	s0,8(sp)
   11f48:	4c28                	lw	a0,88(s0)
   11f4a:	f15fe0ef          	jal	10e5e <__retarget_lock_release_recursive>
   11f4e:	00c41783          	lh	a5,12(s0)
   11f52:	b399                	j	11c98 <_vfprintf_r+0x366>
   11f54:	00094e03          	lbu	t3,0(s2)
   11f58:	020a6a13          	or	s4,s4,32
   11f5c:	b601                	j	11a5c <_vfprintf_r+0x12a>
   11f5e:	4752                	lw	a4,20(sp)
   11f60:	04300793          	li	a5,67
   11f64:	8f52                	mv	t5,s4
   11f66:	8ed6                	mv	t4,s5
   11f68:	00470493          	add	s1,a4,4
   11f6c:	26fe07e3          	beq	t3,a5,129da <_vfprintf_r+0x10a8>
   11f70:	010a7793          	and	a5,s4,16
   11f74:	260793e3          	bnez	a5,129da <_vfprintf_r+0x10a8>
   11f78:	47d2                	lw	a5,20(sp)
   11f7a:	4c85                	li	s9,1
   11f7c:	4b05                	li	s6,1
   11f7e:	439c                	lw	a5,0(a5)
   11f80:	0ec10c13          	add	s8,sp,236
   11f84:	0ef10623          	sb	a5,236(sp)
   11f88:	06010ba3          	sb	zero,119(sp)
   11f8c:	ca26                	sw	s1,20(sp)
   11f8e:	4601                	li	a2,0
   11f90:	c802                	sw	zero,16(sp)
   11f92:	4301                	li	t1,0
   11f94:	d202                	sw	zero,36(sp)
   11f96:	d002                	sw	zero,32(sp)
   11f98:	4a01                	li	s4,0
   11f9a:	b635                	j	11ac6 <_vfprintf_r+0x194>
   11f9c:	47d2                	lw	a5,20(sp)
   11f9e:	06010ba3          	sb	zero,119(sp)
   11fa2:	8ed6                	mv	t4,s5
   11fa4:	0007ac03          	lw	s8,0(a5)
   11fa8:	8f52                	mv	t5,s4
   11faa:	835a                	mv	t1,s6
   11fac:	00478a93          	add	s5,a5,4
   11fb0:	200c03e3          	beqz	s8,129b6 <_vfprintf_r+0x1084>
   11fb4:	05300713          	li	a4,83
   11fb8:	52ee07e3          	beq	t3,a4,12ce6 <_vfprintf_r+0x13b4>
   11fbc:	010a7a13          	and	s4,s4,16
   11fc0:	520a13e3          	bnez	s4,12ce6 <_vfprintf_r+0x13b4>
   11fc4:	000b5463          	bgez	s6,11fcc <_vfprintf_r+0x69a>
   11fc8:	0600106f          	j	13028 <_vfprintf_r+0x16f6>
   11fcc:	865a                	mv	a2,s6
   11fce:	4581                	li	a1,0
   11fd0:	8562                	mv	a0,s8
   11fd2:	d276                	sw	t4,36(sp)
   11fd4:	d07a                	sw	t5,32(sp)
   11fd6:	ca5a                	sw	s6,20(sp)
   11fd8:	620030ef          	jal	155f8 <memchr>
   11fdc:	c82a                	sw	a0,16(sp)
   11fde:	4352                	lw	t1,20(sp)
   11fe0:	5f02                	lw	t5,32(sp)
   11fe2:	5e92                	lw	t4,36(sp)
   11fe4:	e119                	bnez	a0,11fea <_vfprintf_r+0x6b8>
   11fe6:	03f0106f          	j	13824 <_vfprintf_r+0x1ef2>
   11fea:	47c2                	lw	a5,16(sp)
   11fec:	07714603          	lbu	a2,119(sp)
   11ff0:	ca56                	sw	s5,20(sp)
   11ff2:	41878b33          	sub	s6,a5,s8
   11ff6:	fffb4813          	not	a6,s6
   11ffa:	41f85813          	sra	a6,a6,0x1f
   11ffe:	d202                	sw	zero,36(sp)
   12000:	d002                	sw	zero,32(sp)
   12002:	c802                	sw	zero,16(sp)
   12004:	010b7cb3          	and	s9,s6,a6
   12008:	4301                	li	t1,0
   1200a:	07300e13          	li	t3,115
   1200e:	aa060ce3          	beqz	a2,11ac6 <_vfprintf_r+0x194>
   12012:	bb49                	j	11da4 <_vfprintf_r+0x472>
   12014:	47d2                	lw	a5,20(sp)
   12016:	0007aa83          	lw	s5,0(a5)
   1201a:	0791                	add	a5,a5,4
   1201c:	7c0adb63          	bgez	s5,127f2 <_vfprintf_r+0xec0>
   12020:	41500ab3          	neg	s5,s5
   12024:	ca3e                	sw	a5,20(sp)
   12026:	00094e03          	lbu	t3,0(s2)
   1202a:	004a6a13          	or	s4,s4,4
   1202e:	b43d                	j	11a5c <_vfprintf_r+0x12a>
   12030:	00094e03          	lbu	t3,0(s2)
   12034:	06c00793          	li	a5,108
   12038:	12fe05e3          	beq	t3,a5,12962 <_vfprintf_r+0x1030>
   1203c:	010a6a13          	or	s4,s4,16
   12040:	bc31                	j	11a5c <_vfprintf_r+0x12a>
   12042:	00094e03          	lbu	t3,0(s2)
   12046:	06800793          	li	a5,104
   1204a:	12fe03e3          	beq	t3,a5,12970 <_vfprintf_r+0x103e>
   1204e:	040a6a13          	or	s4,s4,64
   12052:	b429                	j	11a5c <_vfprintf_r+0x12a>
   12054:	02b00793          	li	a5,43
   12058:	00094e03          	lbu	t3,0(s2)
   1205c:	06f10ba3          	sb	a5,119(sp)
   12060:	baf5                	j	11a5c <_vfprintf_r+0x12a>
   12062:	00094e03          	lbu	t3,0(s2)
   12066:	080a6a13          	or	s4,s4,128
   1206a:	bacd                	j	11a5c <_vfprintf_r+0x12a>
   1206c:	00094e03          	lbu	t3,0(s2)
   12070:	02a00793          	li	a5,42
   12074:	00190693          	add	a3,s2,1
   12078:	00fe1463          	bne	t3,a5,12080 <_vfprintf_r+0x74e>
   1207c:	05d0106f          	j	138d8 <_vfprintf_r+0x1fa6>
   12080:	fd0e0713          	add	a4,t3,-48
   12084:	47a5                	li	a5,9
   12086:	4b01                	li	s6,0
   12088:	4625                	li	a2,9
   1208a:	02e7e163          	bltu	a5,a4,120ac <_vfprintf_r+0x77a>
   1208e:	0006ce03          	lbu	t3,0(a3)
   12092:	002b1793          	sll	a5,s6,0x2
   12096:	97da                	add	a5,a5,s6
   12098:	0786                	sll	a5,a5,0x1
   1209a:	00e78b33          	add	s6,a5,a4
   1209e:	fd0e0713          	add	a4,t3,-48
   120a2:	0685                	add	a3,a3,1
   120a4:	fee675e3          	bgeu	a2,a4,1208e <_vfprintf_r+0x75c>
   120a8:	040b4ae3          	bltz	s6,128fc <_vfprintf_r+0xfca>
   120ac:	8936                	mv	s2,a3
   120ae:	ba45                	j	11a5e <_vfprintf_r+0x12c>
   120b0:	00094e03          	lbu	t3,0(s2)
   120b4:	001a6a13          	or	s4,s4,1
   120b8:	b255                	j	11a5c <_vfprintf_r+0x12a>
   120ba:	07714783          	lbu	a5,119(sp)
   120be:	00094e03          	lbu	t3,0(s2)
   120c2:	98079de3          	bnez	a5,11a5c <_vfprintf_r+0x12a>
   120c6:	02000793          	li	a5,32
   120ca:	06f10ba3          	sb	a5,119(sp)
   120ce:	b279                	j	11a5c <_vfprintf_r+0x12a>
   120d0:	8ed6                	mv	t4,s5
   120d2:	835a                	mv	t1,s6
   120d4:	010a6f13          	or	t5,s4,16
   120d8:	020f7793          	and	a5,t5,32
   120dc:	6c078a63          	beqz	a5,127b0 <_vfprintf_r+0xe7e>
   120e0:	47d2                	lw	a5,20(sp)
   120e2:	00778a93          	add	s5,a5,7
   120e6:	ff8afa93          	and	s5,s5,-8
   120ea:	000aa483          	lw	s1,0(s5)
   120ee:	004aac83          	lw	s9,4(s5)
   120f2:	008a8793          	add	a5,s5,8
   120f6:	ca3e                	sw	a5,20(sp)
   120f8:	bfff7d13          	and	s10,t5,-1025
   120fc:	4781                	li	a5,0
   120fe:	4701                	li	a4,0
   12100:	06e10ba3          	sb	a4,119(sp)
   12104:	1e034a63          	bltz	t1,122f8 <_vfprintf_r+0x9c6>
   12108:	0194e733          	or	a4,s1,s9
   1210c:	f7fd7f13          	and	t5,s10,-129
   12110:	1e071363          	bnez	a4,122f6 <_vfprintf_r+0x9c4>
   12114:	22031b63          	bnez	t1,1234a <_vfprintf_r+0xa18>
   12118:	14079be3          	bnez	a5,12a6e <_vfprintf_r+0x113c>
   1211c:	001d7b13          	and	s6,s10,1
   12120:	15010c13          	add	s8,sp,336
   12124:	720b1463          	bnez	s6,1284c <_vfprintf_r+0xf1a>
   12128:	07714603          	lbu	a2,119(sp)
   1212c:	8c9a                	mv	s9,t1
   1212e:	01635363          	bge	t1,s6,12134 <_vfprintf_r+0x802>
   12132:	8cda                	mv	s9,s6
   12134:	c802                	sw	zero,16(sp)
   12136:	d202                	sw	zero,36(sp)
   12138:	d002                	sw	zero,32(sp)
   1213a:	4a01                	li	s4,0
   1213c:	980605e3          	beqz	a2,11ac6 <_vfprintf_r+0x194>
   12140:	b195                	j	11da4 <_vfprintf_r+0x472>
   12142:	8ed6                	mv	t4,s5
   12144:	835a                	mv	t1,s6
   12146:	010a6d13          	or	s10,s4,16
   1214a:	020d7793          	and	a5,s10,32
   1214e:	64078263          	beqz	a5,12792 <_vfprintf_r+0xe60>
   12152:	47d2                	lw	a5,20(sp)
   12154:	00778a93          	add	s5,a5,7
   12158:	ff8afa93          	and	s5,s5,-8
   1215c:	008a8793          	add	a5,s5,8
   12160:	ca3e                	sw	a5,20(sp)
   12162:	000aa483          	lw	s1,0(s5)
   12166:	004aac83          	lw	s9,4(s5)
   1216a:	4785                	li	a5,1
   1216c:	bf49                	j	120fe <_vfprintf_r+0x7cc>
   1216e:	00094e03          	lbu	t3,0(s2)
   12172:	008a6a13          	or	s4,s4,8
   12176:	b0dd                	j	11a5c <_vfprintf_r+0x12a>
   12178:	8ed6                	mv	t4,s5
   1217a:	835a                	mv	t1,s6
   1217c:	010a6f13          	or	t5,s4,16
   12180:	020f7793          	and	a5,t5,32
   12184:	5c078763          	beqz	a5,12752 <_vfprintf_r+0xe20>
   12188:	47d2                	lw	a5,20(sp)
   1218a:	00778a93          	add	s5,a5,7
   1218e:	ff8afa93          	and	s5,s5,-8
   12192:	004aa783          	lw	a5,4(s5)
   12196:	000aa483          	lw	s1,0(s5)
   1219a:	008a8713          	add	a4,s5,8
   1219e:	ca3a                	sw	a4,20(sp)
   121a0:	8cbe                	mv	s9,a5
   121a2:	5c07cb63          	bltz	a5,12778 <_vfprintf_r+0xe46>
   121a6:	8d7a                	mv	s10,t5
   121a8:	00034e63          	bltz	t1,121c4 <_vfprintf_r+0x892>
   121ac:	0194e7b3          	or	a5,s1,s9
   121b0:	f7ff7d13          	and	s10,t5,-129
   121b4:	eb81                	bnez	a5,121c4 <_vfprintf_r+0x892>
   121b6:	00031c63          	bnez	t1,121ce <_vfprintf_r+0x89c>
   121ba:	4b01                	li	s6,0
   121bc:	8f6a                	mv	t5,s10
   121be:	15010c13          	add	s8,sp,336
   121c2:	b79d                	j	12128 <_vfprintf_r+0x7f6>
   121c4:	100c90e3          	bnez	s9,12ac4 <_vfprintf_r+0x1192>
   121c8:	47a5                	li	a5,9
   121ca:	0e97ede3          	bltu	a5,s1,12ac4 <_vfprintf_r+0x1192>
   121ce:	03048493          	add	s1,s1,48
   121d2:	149107a3          	sb	s1,335(sp)
   121d6:	8f6a                	mv	t5,s10
   121d8:	4b05                	li	s6,1
   121da:	14f10c13          	add	s8,sp,335
   121de:	b7a9                	j	12128 <_vfprintf_r+0x7f6>
   121e0:	4752                	lw	a4,20(sp)
   121e2:	67a1                	lui	a5,0x8
   121e4:	83078793          	add	a5,a5,-2000 # 7830 <exit-0x8864>
   121e8:	06f11c23          	sh	a5,120(sp)
   121ec:	00470793          	add	a5,a4,4
   121f0:	ca3e                	sw	a5,20(sp)
   121f2:	0000a797          	auipc	a5,0xa
   121f6:	e4e78793          	add	a5,a5,-434 # 1c040 <__clzsi2+0x9a>
   121fa:	dc3e                	sw	a5,56(sp)
   121fc:	4304                	lw	s1,0(a4)
   121fe:	8ed6                	mv	t4,s5
   12200:	835a                	mv	t1,s6
   12202:	4c81                	li	s9,0
   12204:	002a6d13          	or	s10,s4,2
   12208:	4789                	li	a5,2
   1220a:	07800e13          	li	t3,120
   1220e:	bdc5                	j	120fe <_vfprintf_r+0x7cc>
   12210:	020a7793          	and	a5,s4,32
   12214:	6c078263          	beqz	a5,128d8 <_vfprintf_r+0xfa6>
   12218:	47d2                	lw	a5,20(sp)
   1221a:	46b2                	lw	a3,12(sp)
   1221c:	439c                	lw	a5,0(a5)
   1221e:	41f6d713          	sra	a4,a3,0x1f
   12222:	c394                	sw	a3,0(a5)
   12224:	c3d8                	sw	a4,4(a5)
   12226:	47d2                	lw	a5,20(sp)
   12228:	8c4a                	mv	s8,s2
   1222a:	0791                	add	a5,a5,4
   1222c:	ca3e                	sw	a5,20(sp)
   1222e:	fe2ff06f          	j	11a10 <_vfprintf_r+0xde>
   12232:	06500713          	li	a4,101
   12236:	2bc75b63          	bge	a4,t3,124ec <_vfprintf_r+0xbba>
   1223a:	56a2                	lw	a3,40(sp)
   1223c:	5732                	lw	a4,44(sp)
   1223e:	4601                	li	a2,0
   12240:	8536                	mv	a0,a3
   12242:	85ba                	mv	a1,a4
   12244:	4681                	li	a3,0
   12246:	c4f6                	sw	t4,72(sp)
   12248:	c2fa                	sw	t5,68(sp)
   1224a:	2dd080ef          	jal	1ad26 <__eqdf2>
   1224e:	4f16                	lw	t5,68(sp)
   12250:	4ea6                	lw	t4,72(sp)
   12252:	36051d63          	bnez	a0,125cc <_vfprintf_r+0xc9a>
   12256:	579a                	lw	a5,164(sp)
   12258:	0000a717          	auipc	a4,0xa
   1225c:	e1870713          	add	a4,a4,-488 # 1c070 <__clzsi2+0xca>
   12260:	c018                	sw	a4,0(s0)
   12262:	0485                	add	s1,s1,1
   12264:	4705                	li	a4,1
   12266:	0785                	add	a5,a5,1
   12268:	c058                	sw	a4,4(s0)
   1226a:	d526                	sw	s1,168(sp)
   1226c:	d33e                	sw	a5,164(sp)
   1226e:	471d                	li	a4,7
   12270:	0421                	add	s0,s0,8
   12272:	24f74ae3          	blt	a4,a5,12cc6 <_vfprintf_r+0x1394>
   12276:	57f6                	lw	a5,124(sp)
   12278:	4762                	lw	a4,24(sp)
   1227a:	56e7d363          	bge	a5,a4,127e0 <_vfprintf_r+0xeae>
   1227e:	57d2                	lw	a5,52(sp)
   12280:	5742                	lw	a4,48(sp)
   12282:	0421                	add	s0,s0,8
   12284:	fef42c23          	sw	a5,-8(s0)
   12288:	579a                	lw	a5,164(sp)
   1228a:	94ba                	add	s1,s1,a4
   1228c:	fee42e23          	sw	a4,-4(s0)
   12290:	0785                	add	a5,a5,1
   12292:	d526                	sw	s1,168(sp)
   12294:	d33e                	sw	a5,164(sp)
   12296:	471d                	li	a4,7
   12298:	70f74163          	blt	a4,a5,1299a <_vfprintf_r+0x1068>
   1229c:	47e2                	lw	a5,24(sp)
   1229e:	fff78d13          	add	s10,a5,-1
   122a2:	8ba057e3          	blez	s10,11b50 <_vfprintf_r+0x21e>
   122a6:	4741                	li	a4,16
   122a8:	579a                	lw	a5,164(sp)
   122aa:	0000a297          	auipc	t0,0xa
   122ae:	26628293          	add	t0,t0,614 # 1c510 <zeroes.0>
   122b2:	33a753e3          	bge	a4,s10,12dd8 <_vfprintf_r+0x14a6>
   122b6:	8726                	mv	a4,s1
   122b8:	4b41                	li	s6,16
   122ba:	4a9d                	li	s5,7
   122bc:	8c7a                	mv	s8,t5
   122be:	84f6                	mv	s1,t4
   122c0:	8a16                	mv	s4,t0
   122c2:	a021                	j	122ca <_vfprintf_r+0x998>
   122c4:	1d41                	add	s10,s10,-16
   122c6:	31ab55e3          	bge	s6,s10,12dd0 <_vfprintf_r+0x149e>
   122ca:	0741                	add	a4,a4,16
   122cc:	0785                	add	a5,a5,1
   122ce:	01442023          	sw	s4,0(s0)
   122d2:	01642223          	sw	s6,4(s0)
   122d6:	d53a                	sw	a4,168(sp)
   122d8:	d33e                	sw	a5,164(sp)
   122da:	0421                	add	s0,s0,8
   122dc:	fefad4e3          	bge	s5,a5,122c4 <_vfprintf_r+0x992>
   122e0:	45a2                	lw	a1,8(sp)
   122e2:	1110                	add	a2,sp,160
   122e4:	854e                	mv	a0,s3
   122e6:	7bc010ef          	jal	13aa2 <__sprint_r>
   122ea:	980518e3          	bnez	a0,11c7a <_vfprintf_r+0x348>
   122ee:	572a                	lw	a4,168(sp)
   122f0:	579a                	lw	a5,164(sp)
   122f2:	1160                	add	s0,sp,172
   122f4:	bfc1                	j	122c4 <_vfprintf_r+0x992>
   122f6:	8d7a                	mv	s10,t5
   122f8:	4705                	li	a4,1
   122fa:	ece785e3          	beq	a5,a4,121c4 <_vfprintf_r+0x892>
   122fe:	4709                	li	a4,2
   12300:	04e78e63          	beq	a5,a4,1235c <_vfprintf_r+0xa2a>
   12304:	15010c13          	add	s8,sp,336
   12308:	01dc9793          	sll	a5,s9,0x1d
   1230c:	0074f713          	and	a4,s1,7
   12310:	808d                	srl	s1,s1,0x3
   12312:	03070713          	add	a4,a4,48
   12316:	8cdd                	or	s1,s1,a5
   12318:	003cdc93          	srl	s9,s9,0x3
   1231c:	feec0fa3          	sb	a4,-1(s8)
   12320:	0194e7b3          	or	a5,s1,s9
   12324:	8662                	mv	a2,s8
   12326:	1c7d                	add	s8,s8,-1
   12328:	f3e5                	bnez	a5,12308 <_vfprintf_r+0x9d6>
   1232a:	001d7693          	and	a3,s10,1
   1232e:	cab9                	beqz	a3,12384 <_vfprintf_r+0xa52>
   12330:	03000693          	li	a3,48
   12334:	04d70863          	beq	a4,a3,12384 <_vfprintf_r+0xa52>
   12338:	1679                	add	a2,a2,-2
   1233a:	0a9c                	add	a5,sp,336
   1233c:	fedc0fa3          	sb	a3,-1(s8)
   12340:	40c78b33          	sub	s6,a5,a2
   12344:	8f6a                	mv	t5,s10
   12346:	8c32                	mv	s8,a2
   12348:	b3c5                	j	12128 <_vfprintf_r+0x7f6>
   1234a:	4705                	li	a4,1
   1234c:	00e79463          	bne	a5,a4,12354 <_vfprintf_r+0xa22>
   12350:	2f00106f          	j	13640 <_vfprintf_r+0x1d0e>
   12354:	4709                	li	a4,2
   12356:	8d7a                	mv	s10,t5
   12358:	fae796e3          	bne	a5,a4,12304 <_vfprintf_r+0x9d2>
   1235c:	56e2                	lw	a3,56(sp)
   1235e:	15010c13          	add	s8,sp,336
   12362:	00f4f793          	and	a5,s1,15
   12366:	97b6                	add	a5,a5,a3
   12368:	0007c703          	lbu	a4,0(a5)
   1236c:	8091                	srl	s1,s1,0x4
   1236e:	01cc9793          	sll	a5,s9,0x1c
   12372:	8cdd                	or	s1,s1,a5
   12374:	004cdc93          	srl	s9,s9,0x4
   12378:	feec0fa3          	sb	a4,-1(s8)
   1237c:	0194e7b3          	or	a5,s1,s9
   12380:	1c7d                	add	s8,s8,-1
   12382:	f3e5                	bnez	a5,12362 <_vfprintf_r+0xa30>
   12384:	0a9c                	add	a5,sp,336
   12386:	41878b33          	sub	s6,a5,s8
   1238a:	8f6a                	mv	t5,s10
   1238c:	bb71                	j	12128 <_vfprintf_r+0x7f6>
   1238e:	419e8ab3          	sub	s5,t4,s9
   12392:	f9505a63          	blez	s5,11b26 <_vfprintf_r+0x1f4>
   12396:	45c1                	li	a1,16
   12398:	561a                	lw	a2,164(sp)
   1239a:	0000a297          	auipc	t0,0xa
   1239e:	17628293          	add	t0,t0,374 # 1c510 <zeroes.0>
   123a2:	0755d263          	bge	a1,s5,12406 <_vfprintf_r+0xad4>
   123a6:	87a2                	mv	a5,s0
   123a8:	8726                	mv	a4,s1
   123aa:	8456                	mv	s0,s5
   123ac:	48c1                	li	a7,16
   123ae:	8ad2                	mv	s5,s4
   123b0:	4d1d                	li	s10,7
   123b2:	c2fa                	sw	t5,68(sp)
   123b4:	c4f2                	sw	t3,72(sp)
   123b6:	caf6                	sw	t4,84(sp)
   123b8:	8a1a                	mv	s4,t1
   123ba:	8496                	mv	s1,t0
   123bc:	a021                	j	123c4 <_vfprintf_r+0xa92>
   123be:	1441                	add	s0,s0,-16
   123c0:	0288da63          	bge	a7,s0,123f4 <_vfprintf_r+0xac2>
   123c4:	0741                	add	a4,a4,16
   123c6:	0605                	add	a2,a2,1
   123c8:	c384                	sw	s1,0(a5)
   123ca:	0117a223          	sw	a7,4(a5)
   123ce:	d53a                	sw	a4,168(sp)
   123d0:	d332                	sw	a2,164(sp)
   123d2:	07a1                	add	a5,a5,8
   123d4:	fecd55e3          	bge	s10,a2,123be <_vfprintf_r+0xa8c>
   123d8:	45a2                	lw	a1,8(sp)
   123da:	1110                	add	a2,sp,160
   123dc:	854e                	mv	a0,s3
   123de:	6c4010ef          	jal	13aa2 <__sprint_r>
   123e2:	88051ce3          	bnez	a0,11c7a <_vfprintf_r+0x348>
   123e6:	48c1                	li	a7,16
   123e8:	1441                	add	s0,s0,-16
   123ea:	572a                	lw	a4,168(sp)
   123ec:	561a                	lw	a2,164(sp)
   123ee:	117c                	add	a5,sp,172
   123f0:	fc88cae3          	blt	a7,s0,123c4 <_vfprintf_r+0xa92>
   123f4:	4f16                	lw	t5,68(sp)
   123f6:	4e26                	lw	t3,72(sp)
   123f8:	4ed6                	lw	t4,84(sp)
   123fa:	8352                	mv	t1,s4
   123fc:	82a6                	mv	t0,s1
   123fe:	8a56                	mv	s4,s5
   12400:	84ba                	mv	s1,a4
   12402:	8aa2                	mv	s5,s0
   12404:	843e                	mv	s0,a5
   12406:	94d6                	add	s1,s1,s5
   12408:	0605                	add	a2,a2,1
   1240a:	00542023          	sw	t0,0(s0)
   1240e:	01542223          	sw	s5,4(s0)
   12412:	d526                	sw	s1,168(sp)
   12414:	d332                	sw	a2,164(sp)
   12416:	471d                	li	a4,7
   12418:	0421                	add	s0,s0,8
   1241a:	f0c75663          	bge	a4,a2,11b26 <_vfprintf_r+0x1f4>
   1241e:	45a2                	lw	a1,8(sp)
   12420:	1110                	add	a2,sp,160
   12422:	854e                	mv	a0,s3
   12424:	cc9a                	sw	t1,88(sp)
   12426:	caf6                	sw	t4,84(sp)
   12428:	c4f2                	sw	t3,72(sp)
   1242a:	c2fa                	sw	t5,68(sp)
   1242c:	676010ef          	jal	13aa2 <__sprint_r>
   12430:	840515e3          	bnez	a0,11c7a <_vfprintf_r+0x348>
   12434:	54aa                	lw	s1,168(sp)
   12436:	4366                	lw	t1,88(sp)
   12438:	4ed6                	lw	t4,84(sp)
   1243a:	4e26                	lw	t3,72(sp)
   1243c:	4f16                	lw	t5,68(sp)
   1243e:	1160                	add	s0,sp,172
   12440:	ee6ff06f          	j	11b26 <_vfprintf_r+0x1f4>
   12444:	4741                	li	a4,16
   12446:	561a                	lw	a2,164(sp)
   12448:	0000a297          	auipc	t0,0xa
   1244c:	0c828293          	add	t0,t0,200 # 1c510 <zeroes.0>
   12450:	07575163          	bge	a4,s5,124b2 <_vfprintf_r+0xb80>
   12454:	87a2                	mv	a5,s0
   12456:	86a6                	mv	a3,s1
   12458:	8456                	mv	s0,s5
   1245a:	4741                	li	a4,16
   1245c:	4d1d                	li	s10,7
   1245e:	c2fa                	sw	t5,68(sp)
   12460:	c4f2                	sw	t3,72(sp)
   12462:	84f6                	mv	s1,t4
   12464:	8a96                	mv	s5,t0
   12466:	a021                	j	1246e <_vfprintf_r+0xb3c>
   12468:	1441                	add	s0,s0,-16
   1246a:	02875d63          	bge	a4,s0,124a4 <_vfprintf_r+0xb72>
   1246e:	06c1                	add	a3,a3,16
   12470:	0605                	add	a2,a2,1
   12472:	0000a597          	auipc	a1,0xa
   12476:	09e58593          	add	a1,a1,158 # 1c510 <zeroes.0>
   1247a:	c38c                	sw	a1,0(a5)
   1247c:	c3d8                	sw	a4,4(a5)
   1247e:	d536                	sw	a3,168(sp)
   12480:	d332                	sw	a2,164(sp)
   12482:	07a1                	add	a5,a5,8
   12484:	fecd52e3          	bge	s10,a2,12468 <_vfprintf_r+0xb36>
   12488:	45a2                	lw	a1,8(sp)
   1248a:	1110                	add	a2,sp,160
   1248c:	854e                	mv	a0,s3
   1248e:	614010ef          	jal	13aa2 <__sprint_r>
   12492:	fe051463          	bnez	a0,11c7a <_vfprintf_r+0x348>
   12496:	4741                	li	a4,16
   12498:	1441                	add	s0,s0,-16
   1249a:	56aa                	lw	a3,168(sp)
   1249c:	561a                	lw	a2,164(sp)
   1249e:	117c                	add	a5,sp,172
   124a0:	fc8747e3          	blt	a4,s0,1246e <_vfprintf_r+0xb3c>
   124a4:	4f16                	lw	t5,68(sp)
   124a6:	4e26                	lw	t3,72(sp)
   124a8:	8ea6                	mv	t4,s1
   124aa:	82d6                	mv	t0,s5
   124ac:	84b6                	mv	s1,a3
   124ae:	8aa2                	mv	s5,s0
   124b0:	843e                	mv	s0,a5
   124b2:	94d6                	add	s1,s1,s5
   124b4:	0605                	add	a2,a2,1
   124b6:	00542023          	sw	t0,0(s0)
   124ba:	01542223          	sw	s5,4(s0)
   124be:	d526                	sw	s1,168(sp)
   124c0:	d332                	sw	a2,164(sp)
   124c2:	471d                	li	a4,7
   124c4:	0421                	add	s0,s0,8
   124c6:	e6c75463          	bge	a4,a2,11b2e <_vfprintf_r+0x1fc>
   124ca:	45a2                	lw	a1,8(sp)
   124cc:	1110                	add	a2,sp,160
   124ce:	854e                	mv	a0,s3
   124d0:	caf6                	sw	t4,84(sp)
   124d2:	c4f2                	sw	t3,72(sp)
   124d4:	c2fa                	sw	t5,68(sp)
   124d6:	5cc010ef          	jal	13aa2 <__sprint_r>
   124da:	fa051063          	bnez	a0,11c7a <_vfprintf_r+0x348>
   124de:	54aa                	lw	s1,168(sp)
   124e0:	4ed6                	lw	t4,84(sp)
   124e2:	4e26                	lw	t3,72(sp)
   124e4:	4f16                	lw	t5,68(sp)
   124e6:	1160                	add	s0,sp,172
   124e8:	e46ff06f          	j	11b2e <_vfprintf_r+0x1fc>
   124ec:	5d1a                	lw	s10,164(sp)
   124ee:	47e2                	lw	a5,24(sp)
   124f0:	4685                	li	a3,1
   124f2:	01842023          	sw	s8,0(s0)
   124f6:	0485                	add	s1,s1,1
   124f8:	0d05                	add	s10,s10,1
   124fa:	00840a93          	add	s5,s0,8
   124fe:	1cf6d363          	bge	a3,a5,126c4 <_vfprintf_r+0xd92>
   12502:	4685                	li	a3,1
   12504:	c054                	sw	a3,4(s0)
   12506:	d526                	sw	s1,168(sp)
   12508:	d36a                	sw	s10,164(sp)
   1250a:	469d                	li	a3,7
   1250c:	59a6c663          	blt	a3,s10,12a98 <_vfprintf_r+0x1166>
   12510:	57c2                	lw	a5,48(sp)
   12512:	5752                	lw	a4,52(sp)
   12514:	0d05                	add	s10,s10,1
   12516:	94be                	add	s1,s1,a5
   12518:	00eaa023          	sw	a4,0(s5)
   1251c:	00faa223          	sw	a5,4(s5)
   12520:	d526                	sw	s1,168(sp)
   12522:	d36a                	sw	s10,164(sp)
   12524:	469d                	li	a3,7
   12526:	0aa1                	add	s5,s5,8
   12528:	55a6c863          	blt	a3,s10,12a78 <_vfprintf_r+0x1146>
   1252c:	5622                	lw	a2,40(sp)
   1252e:	56b2                	lw	a3,44(sp)
   12530:	47e2                	lw	a5,24(sp)
   12532:	8532                	mv	a0,a2
   12534:	85b6                	mv	a1,a3
   12536:	4601                	li	a2,0
   12538:	4681                	li	a3,0
   1253a:	d276                	sw	t4,36(sp)
   1253c:	d07a                	sw	t5,32(sp)
   1253e:	fff78413          	add	s0,a5,-1
   12542:	7e4080ef          	jal	1ad26 <__eqdf2>
   12546:	5f02                	lw	t5,32(sp)
   12548:	5e92                	lw	t4,36(sp)
   1254a:	1a050763          	beqz	a0,126f8 <_vfprintf_r+0xdc6>
   1254e:	001c0793          	add	a5,s8,1
   12552:	0d05                	add	s10,s10,1
   12554:	94a2                	add	s1,s1,s0
   12556:	00faa023          	sw	a5,0(s5)
   1255a:	008aa223          	sw	s0,4(s5)
   1255e:	d526                	sw	s1,168(sp)
   12560:	d36a                	sw	s10,164(sp)
   12562:	479d                	li	a5,7
   12564:	0aa1                	add	s5,s5,8
   12566:	73a7cf63          	blt	a5,s10,12ca4 <_vfprintf_r+0x1372>
   1256a:	4706                	lw	a4,64(sp)
   1256c:	013c                	add	a5,sp,136
   1256e:	0d05                	add	s10,s10,1
   12570:	94ba                	add	s1,s1,a4
   12572:	00faa023          	sw	a5,0(s5)
   12576:	00eaa223          	sw	a4,4(s5)
   1257a:	d526                	sw	s1,168(sp)
   1257c:	d36a                	sw	s10,164(sp)
   1257e:	479d                	li	a5,7
   12580:	008a8413          	add	s0,s5,8
   12584:	dda7d663          	bge	a5,s10,11b50 <_vfprintf_r+0x21e>
   12588:	45a2                	lw	a1,8(sp)
   1258a:	1110                	add	a2,sp,160
   1258c:	854e                	mv	a0,s3
   1258e:	d276                	sw	t4,36(sp)
   12590:	d07a                	sw	t5,32(sp)
   12592:	510010ef          	jal	13aa2 <__sprint_r>
   12596:	ee051263          	bnez	a0,11c7a <_vfprintf_r+0x348>
   1259a:	54aa                	lw	s1,168(sp)
   1259c:	5e92                	lw	t4,36(sp)
   1259e:	5f02                	lw	t5,32(sp)
   125a0:	1160                	add	s0,sp,172
   125a2:	daeff06f          	j	11b50 <_vfprintf_r+0x21e>
   125a6:	45a2                	lw	a1,8(sp)
   125a8:	1110                	add	a2,sp,160
   125aa:	854e                	mv	a0,s3
   125ac:	cc9a                	sw	t1,88(sp)
   125ae:	caf6                	sw	t4,84(sp)
   125b0:	c4f2                	sw	t3,72(sp)
   125b2:	c2fa                	sw	t5,68(sp)
   125b4:	4ee010ef          	jal	13aa2 <__sprint_r>
   125b8:	ec051163          	bnez	a0,11c7a <_vfprintf_r+0x348>
   125bc:	54aa                	lw	s1,168(sp)
   125be:	4366                	lw	t1,88(sp)
   125c0:	4ed6                	lw	t4,84(sp)
   125c2:	4e26                	lw	t3,72(sp)
   125c4:	4f16                	lw	t5,68(sp)
   125c6:	1160                	add	s0,sp,172
   125c8:	d56ff06f          	j	11b1e <_vfprintf_r+0x1ec>
   125cc:	5676                	lw	a2,124(sp)
   125ce:	22c05763          	blez	a2,127fc <_vfprintf_r+0xeca>
   125d2:	47e2                	lw	a5,24(sp)
   125d4:	8ad2                	mv	s5,s4
   125d6:	0147d363          	bge	a5,s4,125dc <_vfprintf_r+0xcaa>
   125da:	8abe                	mv	s5,a5
   125dc:	03505163          	blez	s5,125fe <_vfprintf_r+0xccc>
   125e0:	569a                	lw	a3,164(sp)
   125e2:	94d6                	add	s1,s1,s5
   125e4:	01842023          	sw	s8,0(s0)
   125e8:	0685                	add	a3,a3,1
   125ea:	01542223          	sw	s5,4(s0)
   125ee:	d526                	sw	s1,168(sp)
   125f0:	d336                	sw	a3,164(sp)
   125f2:	461d                	li	a2,7
   125f4:	0421                	add	s0,s0,8
   125f6:	00d65463          	bge	a2,a3,125fe <_vfprintf_r+0xccc>
   125fa:	7890006f          	j	13582 <_vfprintf_r+0x1c50>
   125fe:	fffac693          	not	a3,s5
   12602:	86fd                	sra	a3,a3,0x1f
   12604:	00daf733          	and	a4,s5,a3
   12608:	40ea0ab3          	sub	s5,s4,a4
   1260c:	015046e3          	bgtz	s5,12e18 <_vfprintf_r+0x14e6>
   12610:	400f7713          	and	a4,t5,1024
   12614:	014c0b33          	add	s6,s8,s4
   12618:	500714e3          	bnez	a4,13320 <_vfprintf_r+0x19ee>
   1261c:	5d76                	lw	s10,124(sp)
   1261e:	47e2                	lw	a5,24(sp)
   12620:	3efd4d63          	blt	s10,a5,12a1a <_vfprintf_r+0x10e8>
   12624:	001f7713          	and	a4,t5,1
   12628:	3e071963          	bnez	a4,12a1a <_vfprintf_r+0x10e8>
   1262c:	4762                	lw	a4,24(sp)
   1262e:	00ec07b3          	add	a5,s8,a4
   12632:	41a70d33          	sub	s10,a4,s10
   12636:	41678ab3          	sub	s5,a5,s6
   1263a:	015d5363          	bge	s10,s5,12640 <_vfprintf_r+0xd0e>
   1263e:	8aea                	mv	s5,s10
   12640:	03505163          	blez	s5,12662 <_vfprintf_r+0xd30>
   12644:	571a                	lw	a4,164(sp)
   12646:	94d6                	add	s1,s1,s5
   12648:	01642023          	sw	s6,0(s0)
   1264c:	0705                	add	a4,a4,1
   1264e:	01542223          	sw	s5,4(s0)
   12652:	d526                	sw	s1,168(sp)
   12654:	d33a                	sw	a4,164(sp)
   12656:	469d                	li	a3,7
   12658:	0421                	add	s0,s0,8
   1265a:	00e6d463          	bge	a3,a4,12662 <_vfprintf_r+0xd30>
   1265e:	75d0006f          	j	135ba <_vfprintf_r+0x1c88>
   12662:	fffac713          	not	a4,s5
   12666:	877d                	sra	a4,a4,0x1f
   12668:	00eaf7b3          	and	a5,s5,a4
   1266c:	40fd0d33          	sub	s10,s10,a5
   12670:	cfa05063          	blez	s10,11b50 <_vfprintf_r+0x21e>
   12674:	4741                	li	a4,16
   12676:	579a                	lw	a5,164(sp)
   12678:	0000a297          	auipc	t0,0xa
   1267c:	e9828293          	add	t0,t0,-360 # 1c510 <zeroes.0>
   12680:	75a75c63          	bge	a4,s10,12dd8 <_vfprintf_r+0x14a6>
   12684:	8726                	mv	a4,s1
   12686:	4b41                	li	s6,16
   12688:	4a9d                	li	s5,7
   1268a:	8c7a                	mv	s8,t5
   1268c:	84f6                	mv	s1,t4
   1268e:	8a16                	mv	s4,t0
   12690:	a021                	j	12698 <_vfprintf_r+0xd66>
   12692:	1d41                	add	s10,s10,-16
   12694:	73ab5e63          	bge	s6,s10,12dd0 <_vfprintf_r+0x149e>
   12698:	0741                	add	a4,a4,16
   1269a:	0785                	add	a5,a5,1
   1269c:	01442023          	sw	s4,0(s0)
   126a0:	01642223          	sw	s6,4(s0)
   126a4:	d53a                	sw	a4,168(sp)
   126a6:	d33e                	sw	a5,164(sp)
   126a8:	0421                	add	s0,s0,8
   126aa:	fefad4e3          	bge	s5,a5,12692 <_vfprintf_r+0xd60>
   126ae:	45a2                	lw	a1,8(sp)
   126b0:	1110                	add	a2,sp,160
   126b2:	854e                	mv	a0,s3
   126b4:	3ee010ef          	jal	13aa2 <__sprint_r>
   126b8:	dc051163          	bnez	a0,11c7a <_vfprintf_r+0x348>
   126bc:	572a                	lw	a4,168(sp)
   126be:	579a                	lw	a5,164(sp)
   126c0:	1160                	add	s0,sp,172
   126c2:	bfc1                	j	12692 <_vfprintf_r+0xd60>
   126c4:	001f7613          	and	a2,t5,1
   126c8:	e2061de3          	bnez	a2,12502 <_vfprintf_r+0xbd0>
   126cc:	c054                	sw	a3,4(s0)
   126ce:	d526                	sw	s1,168(sp)
   126d0:	d36a                	sw	s10,164(sp)
   126d2:	479d                	li	a5,7
   126d4:	e9a7dbe3          	bge	a5,s10,1256a <_vfprintf_r+0xc38>
   126d8:	45a2                	lw	a1,8(sp)
   126da:	1110                	add	a2,sp,160
   126dc:	854e                	mv	a0,s3
   126de:	d276                	sw	t4,36(sp)
   126e0:	d07a                	sw	t5,32(sp)
   126e2:	3c0010ef          	jal	13aa2 <__sprint_r>
   126e6:	d8051a63          	bnez	a0,11c7a <_vfprintf_r+0x348>
   126ea:	54aa                	lw	s1,168(sp)
   126ec:	5d1a                	lw	s10,164(sp)
   126ee:	5e92                	lw	t4,36(sp)
   126f0:	5f02                	lw	t5,32(sp)
   126f2:	0ac10a93          	add	s5,sp,172
   126f6:	bd95                	j	1256a <_vfprintf_r+0xc38>
   126f8:	4762                	lw	a4,24(sp)
   126fa:	4785                	li	a5,1
   126fc:	e6e7d7e3          	bge	a5,a4,1256a <_vfprintf_r+0xc38>
   12700:	47c5                	li	a5,17
   12702:	0000a297          	auipc	t0,0xa
   12706:	e0e28293          	add	t0,t0,-498 # 1c510 <zeroes.0>
   1270a:	70e7d163          	bge	a5,a4,12e0c <_vfprintf_r+0x14da>
   1270e:	8a22                	mv	s4,s0
   12710:	87a6                	mv	a5,s1
   12712:	4c41                	li	s8,16
   12714:	4b1d                	li	s6,7
   12716:	d07a                	sw	t5,32(sp)
   12718:	84f6                	mv	s1,t4
   1271a:	8416                	mv	s0,t0
   1271c:	a021                	j	12724 <_vfprintf_r+0xdf2>
   1271e:	1a41                	add	s4,s4,-16
   12720:	6f4c5163          	bge	s8,s4,12e02 <_vfprintf_r+0x14d0>
   12724:	07c1                	add	a5,a5,16
   12726:	0d05                	add	s10,s10,1
   12728:	008aa023          	sw	s0,0(s5)
   1272c:	018aa223          	sw	s8,4(s5)
   12730:	d53e                	sw	a5,168(sp)
   12732:	d36a                	sw	s10,164(sp)
   12734:	0aa1                	add	s5,s5,8
   12736:	ffab54e3          	bge	s6,s10,1271e <_vfprintf_r+0xdec>
   1273a:	45a2                	lw	a1,8(sp)
   1273c:	1110                	add	a2,sp,160
   1273e:	854e                	mv	a0,s3
   12740:	362010ef          	jal	13aa2 <__sprint_r>
   12744:	d2051b63          	bnez	a0,11c7a <_vfprintf_r+0x348>
   12748:	57aa                	lw	a5,168(sp)
   1274a:	5d1a                	lw	s10,164(sp)
   1274c:	0ac10a93          	add	s5,sp,172
   12750:	b7f9                	j	1271e <_vfprintf_r+0xdec>
   12752:	4752                	lw	a4,20(sp)
   12754:	010f7793          	and	a5,t5,16
   12758:	4304                	lw	s1,0(a4)
   1275a:	0711                	add	a4,a4,4
   1275c:	ca3a                	sw	a4,20(sp)
   1275e:	12079063          	bnez	a5,1287e <_vfprintf_r+0xf4c>
   12762:	040f7793          	and	a5,t5,64
   12766:	10078863          	beqz	a5,12876 <_vfprintf_r+0xf44>
   1276a:	04c2                	sll	s1,s1,0x10
   1276c:	84c1                	sra	s1,s1,0x10
   1276e:	41f4dc93          	sra	s9,s1,0x1f
   12772:	87e6                	mv	a5,s9
   12774:	a207d9e3          	bgez	a5,121a6 <_vfprintf_r+0x874>
   12778:	009037b3          	snez	a5,s1
   1277c:	41900cb3          	neg	s9,s9
   12780:	40fc8cb3          	sub	s9,s9,a5
   12784:	409004b3          	neg	s1,s1
   12788:	8d7a                	mv	s10,t5
   1278a:	02d00713          	li	a4,45
   1278e:	4785                	li	a5,1
   12790:	ba85                	j	12100 <_vfprintf_r+0x7ce>
   12792:	4752                	lw	a4,20(sp)
   12794:	010d7793          	and	a5,s10,16
   12798:	4304                	lw	s1,0(a4)
   1279a:	0711                	add	a4,a4,4
   1279c:	ca3a                	sw	a4,20(sp)
   1279e:	e3f9                	bnez	a5,12864 <_vfprintf_r+0xf32>
   127a0:	040d7793          	and	a5,s10,64
   127a4:	cbdd                	beqz	a5,1285a <_vfprintf_r+0xf28>
   127a6:	04c2                	sll	s1,s1,0x10
   127a8:	80c1                	srl	s1,s1,0x10
   127aa:	4c81                	li	s9,0
   127ac:	4785                	li	a5,1
   127ae:	ba81                	j	120fe <_vfprintf_r+0x7cc>
   127b0:	4752                	lw	a4,20(sp)
   127b2:	010f7793          	and	a5,t5,16
   127b6:	4304                	lw	s1,0(a4)
   127b8:	0711                	add	a4,a4,4
   127ba:	ca3a                	sw	a4,20(sp)
   127bc:	ebdd                	bnez	a5,12872 <_vfprintf_r+0xf40>
   127be:	040f7793          	and	a5,t5,64
   127c2:	c7c5                	beqz	a5,1286a <_vfprintf_r+0xf38>
   127c4:	04c2                	sll	s1,s1,0x10
   127c6:	80c1                	srl	s1,s1,0x10
   127c8:	4c81                	li	s9,0
   127ca:	b23d                	j	120f8 <_vfprintf_r+0x7c6>
   127cc:	4422                	lw	s0,8(sp)
   127ce:	c63e                	sw	a5,12(sp)
   127d0:	4c28                	lw	a0,88(s0)
   127d2:	e80fe0ef          	jal	10e52 <__retarget_lock_acquire_recursive>
   127d6:	00c41703          	lh	a4,12(s0)
   127da:	47b2                	lw	a5,12(sp)
   127dc:	9acff06f          	j	11988 <_vfprintf_r+0x56>
   127e0:	001f7793          	and	a5,t5,1
   127e4:	b6078663          	beqz	a5,11b50 <_vfprintf_r+0x21e>
   127e8:	bc59                	j	1227e <_vfprintf_r+0x94c>
   127ea:	8f52                	mv	t5,s4
   127ec:	8ed6                	mv	t4,s5
   127ee:	835a                	mv	t1,s6
   127f0:	ba41                	j	12180 <_vfprintf_r+0x84e>
   127f2:	00094e03          	lbu	t3,0(s2)
   127f6:	ca3e                	sw	a5,20(sp)
   127f8:	a64ff06f          	j	11a5c <_vfprintf_r+0x12a>
   127fc:	571a                	lw	a4,164(sp)
   127fe:	0000a697          	auipc	a3,0xa
   12802:	87268693          	add	a3,a3,-1934 # 1c070 <__clzsi2+0xca>
   12806:	c014                	sw	a3,0(s0)
   12808:	0485                	add	s1,s1,1
   1280a:	4685                	li	a3,1
   1280c:	0705                	add	a4,a4,1
   1280e:	c054                	sw	a3,4(s0)
   12810:	d526                	sw	s1,168(sp)
   12812:	d33a                	sw	a4,164(sp)
   12814:	469d                	li	a3,7
   12816:	0421                	add	s0,s0,8
   12818:	7ae6c463          	blt	a3,a4,12fc0 <_vfprintf_r+0x168e>
   1281c:	e4061363          	bnez	a2,11e62 <_vfprintf_r+0x530>
   12820:	47e2                	lw	a5,24(sp)
   12822:	001f7713          	and	a4,t5,1
   12826:	8f5d                	or	a4,a4,a5
   12828:	b2070463          	beqz	a4,11b50 <_vfprintf_r+0x21e>
   1282c:	5752                	lw	a4,52(sp)
   1282e:	57c2                	lw	a5,48(sp)
   12830:	469d                	li	a3,7
   12832:	c018                	sw	a4,0(s0)
   12834:	571a                	lw	a4,164(sp)
   12836:	009785b3          	add	a1,a5,s1
   1283a:	c05c                	sw	a5,4(s0)
   1283c:	0705                	add	a4,a4,1
   1283e:	d52e                	sw	a1,168(sp)
   12840:	d33a                	sw	a4,164(sp)
   12842:	00e6cfe3          	blt	a3,a4,13060 <_vfprintf_r+0x172e>
   12846:	0421                	add	s0,s0,8
   12848:	e42ff06f          	j	11e8a <_vfprintf_r+0x558>
   1284c:	03000793          	li	a5,48
   12850:	14f107a3          	sb	a5,335(sp)
   12854:	14f10c13          	add	s8,sp,335
   12858:	b8c1                	j	12128 <_vfprintf_r+0x7f6>
   1285a:	200d7793          	and	a5,s10,512
   1285e:	c399                	beqz	a5,12864 <_vfprintf_r+0xf32>
   12860:	0ff4f493          	zext.b	s1,s1
   12864:	4c81                	li	s9,0
   12866:	4785                	li	a5,1
   12868:	b859                	j	120fe <_vfprintf_r+0x7cc>
   1286a:	200f7793          	and	a5,t5,512
   1286e:	78079e63          	bnez	a5,1300a <_vfprintf_r+0x16d8>
   12872:	4c81                	li	s9,0
   12874:	b051                	j	120f8 <_vfprintf_r+0x7c6>
   12876:	200f7793          	and	a5,t5,512
   1287a:	78079163          	bnez	a5,12ffc <_vfprintf_r+0x16ca>
   1287e:	41f4dc93          	sra	s9,s1,0x1f
   12882:	87e6                	mv	a5,s9
   12884:	ba39                	j	121a2 <_vfprintf_r+0x870>
   12886:	57f2                	lw	a5,60(sp)
   12888:	00094e03          	lbu	t3,0(s2)
   1288c:	9c078863          	beqz	a5,11a5c <_vfprintf_r+0x12a>
   12890:	0007c783          	lbu	a5,0(a5)
   12894:	9c078463          	beqz	a5,11a5c <_vfprintf_r+0x12a>
   12898:	400a6a13          	or	s4,s4,1024
   1289c:	9c0ff06f          	j	11a5c <_vfprintf_r+0x12a>
   128a0:	47d2                	lw	a5,20(sp)
   128a2:	1088                	add	a0,sp,96
   128a4:	d256                	sw	s5,36(sp)
   128a6:	4398                	lw	a4,0(a5)
   128a8:	d072                	sw	t3,32(sp)
   128aa:	00478a93          	add	s5,a5,4
   128ae:	4314                	lw	a3,0(a4)
   128b0:	c2da                	sw	s6,68(sp)
   128b2:	c852                	sw	s4,16(sp)
   128b4:	d0b6                	sw	a3,96(sp)
   128b6:	4354                	lw	a3,4(a4)
   128b8:	d2b6                	sw	a3,100(sp)
   128ba:	4714                	lw	a3,8(a4)
   128bc:	d4b6                	sw	a3,104(sp)
   128be:	4758                	lw	a4,12(a4)
   128c0:	d6ba                	sw	a4,108(sp)
   128c2:	43a090ef          	jal	1bcfc <__trunctfdf2>
   128c6:	5e02                	lw	t3,32(sp)
   128c8:	5e92                	lw	t4,36(sp)
   128ca:	d42a                	sw	a0,40(sp)
   128cc:	d62e                	sw	a1,44(sp)
   128ce:	ca56                	sw	s5,20(sp)
   128d0:	8f52                	mv	t5,s4
   128d2:	835a                	mv	t1,s6
   128d4:	c32ff06f          	j	11d06 <_vfprintf_r+0x3d4>
   128d8:	010a7793          	and	a5,s4,16
   128dc:	50079d63          	bnez	a5,12df6 <_vfprintf_r+0x14c4>
   128e0:	040a7793          	and	a5,s4,64
   128e4:	70079163          	bnez	a5,12fe6 <_vfprintf_r+0x16b4>
   128e8:	200a7f13          	and	t5,s4,512
   128ec:	500f0563          	beqz	t5,12df6 <_vfprintf_r+0x14c4>
   128f0:	47d2                	lw	a5,20(sp)
   128f2:	4732                	lw	a4,12(sp)
   128f4:	439c                	lw	a5,0(a5)
   128f6:	00e78023          	sb	a4,0(a5)
   128fa:	b235                	j	12226 <_vfprintf_r+0x8f4>
   128fc:	5b7d                	li	s6,-1
   128fe:	8936                	mv	s2,a3
   12900:	95eff06f          	j	11a5e <_vfprintf_r+0x12c>
   12904:	8ed6                	mv	t4,s5
   12906:	835a                	mv	t1,s6
   12908:	8d52                	mv	s10,s4
   1290a:	b081                	j	1214a <_vfprintf_r+0x818>
   1290c:	00009797          	auipc	a5,0x9
   12910:	74878793          	add	a5,a5,1864 # 1c054 <__clzsi2+0xae>
   12914:	8f52                	mv	t5,s4
   12916:	8ed6                	mv	t4,s5
   12918:	835a                	mv	t1,s6
   1291a:	dc3e                	sw	a5,56(sp)
   1291c:	020f7793          	and	a5,t5,32
   12920:	12078963          	beqz	a5,12a52 <_vfprintf_r+0x1120>
   12924:	47d2                	lw	a5,20(sp)
   12926:	00778a93          	add	s5,a5,7
   1292a:	ff8afa93          	and	s5,s5,-8
   1292e:	000aa483          	lw	s1,0(s5)
   12932:	004aac83          	lw	s9,4(s5)
   12936:	008a8793          	add	a5,s5,8
   1293a:	ca3e                	sw	a5,20(sp)
   1293c:	001f7793          	and	a5,t5,1
   12940:	cf81                	beqz	a5,12958 <_vfprintf_r+0x1026>
   12942:	0194e7b3          	or	a5,s1,s9
   12946:	cb89                	beqz	a5,12958 <_vfprintf_r+0x1026>
   12948:	03000793          	li	a5,48
   1294c:	06f10c23          	sb	a5,120(sp)
   12950:	07c10ca3          	sb	t3,121(sp)
   12954:	002f6f13          	or	t5,t5,2
   12958:	bfff7d13          	and	s10,t5,-1025
   1295c:	4789                	li	a5,2
   1295e:	fa0ff06f          	j	120fe <_vfprintf_r+0x7cc>
   12962:	00194e03          	lbu	t3,1(s2)
   12966:	020a6a13          	or	s4,s4,32
   1296a:	0905                	add	s2,s2,1
   1296c:	8f0ff06f          	j	11a5c <_vfprintf_r+0x12a>
   12970:	00194e03          	lbu	t3,1(s2)
   12974:	200a6a13          	or	s4,s4,512
   12978:	0905                	add	s2,s2,1
   1297a:	8e2ff06f          	j	11a5c <_vfprintf_r+0x12a>
   1297e:	00009797          	auipc	a5,0x9
   12982:	6c278793          	add	a5,a5,1730 # 1c040 <__clzsi2+0x9a>
   12986:	8f52                	mv	t5,s4
   12988:	8ed6                	mv	t4,s5
   1298a:	835a                	mv	t1,s6
   1298c:	dc3e                	sw	a5,56(sp)
   1298e:	b779                	j	1291c <_vfprintf_r+0xfea>
   12990:	8f52                	mv	t5,s4
   12992:	8ed6                	mv	t4,s5
   12994:	835a                	mv	t1,s6
   12996:	f42ff06f          	j	120d8 <_vfprintf_r+0x7a6>
   1299a:	45a2                	lw	a1,8(sp)
   1299c:	1110                	add	a2,sp,160
   1299e:	854e                	mv	a0,s3
   129a0:	d276                	sw	t4,36(sp)
   129a2:	d07a                	sw	t5,32(sp)
   129a4:	0fe010ef          	jal	13aa2 <__sprint_r>
   129a8:	ac051963          	bnez	a0,11c7a <_vfprintf_r+0x348>
   129ac:	54aa                	lw	s1,168(sp)
   129ae:	5e92                	lw	t4,36(sp)
   129b0:	5f02                	lw	t5,32(sp)
   129b2:	1160                	add	s0,sp,172
   129b4:	b0e5                	j	1229c <_vfprintf_r+0x96a>
   129b6:	4799                	li	a5,6
   129b8:	8cda                	mv	s9,s6
   129ba:	6367e463          	bltu	a5,s6,12fe2 <_vfprintf_r+0x16b0>
   129be:	ca56                	sw	s5,20(sp)
   129c0:	c802                	sw	zero,16(sp)
   129c2:	8b66                	mv	s6,s9
   129c4:	4601                	li	a2,0
   129c6:	4301                	li	t1,0
   129c8:	d202                	sw	zero,36(sp)
   129ca:	d002                	sw	zero,32(sp)
   129cc:	4a01                	li	s4,0
   129ce:	00009c17          	auipc	s8,0x9
   129d2:	69ac0c13          	add	s8,s8,1690 # 1c068 <__clzsi2+0xc2>
   129d6:	8f0ff06f          	j	11ac6 <_vfprintf_r+0x194>
   129da:	4621                	li	a2,8
   129dc:	4581                	li	a1,0
   129de:	0928                	add	a0,sp,152
   129e0:	d276                	sw	t4,36(sp)
   129e2:	d072                	sw	t3,32(sp)
   129e4:	c87a                	sw	t5,16(sp)
   129e6:	c7afe0ef          	jal	10e60 <memset>
   129ea:	47d2                	lw	a5,20(sp)
   129ec:	0ec10c13          	add	s8,sp,236
   129f0:	0934                	add	a3,sp,152
   129f2:	4390                	lw	a2,0(a5)
   129f4:	85e2                	mv	a1,s8
   129f6:	854e                	mv	a0,s3
   129f8:	792060ef          	jal	1918a <_wcrtomb_r>
   129fc:	57fd                	li	a5,-1
   129fe:	4f42                	lw	t5,16(sp)
   12a00:	5e02                	lw	t3,32(sp)
   12a02:	5e92                	lw	t4,36(sp)
   12a04:	8b2a                	mv	s6,a0
   12a06:	6ef50ae3          	beq	a0,a5,138fa <_vfprintf_r+0x1fc8>
   12a0a:	fff54813          	not	a6,a0
   12a0e:	41f85813          	sra	a6,a6,0x1f
   12a12:	01057cb3          	and	s9,a0,a6
   12a16:	d72ff06f          	j	11f88 <_vfprintf_r+0x656>
   12a1a:	5752                	lw	a4,52(sp)
   12a1c:	57c2                	lw	a5,48(sp)
   12a1e:	469d                	li	a3,7
   12a20:	c018                	sw	a4,0(s0)
   12a22:	571a                	lw	a4,164(sp)
   12a24:	94be                	add	s1,s1,a5
   12a26:	c05c                	sw	a5,4(s0)
   12a28:	0705                	add	a4,a4,1
   12a2a:	d526                	sw	s1,168(sp)
   12a2c:	d33a                	sw	a4,164(sp)
   12a2e:	0421                	add	s0,s0,8
   12a30:	bee6dee3          	bge	a3,a4,1262c <_vfprintf_r+0xcfa>
   12a34:	45a2                	lw	a1,8(sp)
   12a36:	1110                	add	a2,sp,160
   12a38:	854e                	mv	a0,s3
   12a3a:	d276                	sw	t4,36(sp)
   12a3c:	d07a                	sw	t5,32(sp)
   12a3e:	064010ef          	jal	13aa2 <__sprint_r>
   12a42:	a2051c63          	bnez	a0,11c7a <_vfprintf_r+0x348>
   12a46:	5d76                	lw	s10,124(sp)
   12a48:	54aa                	lw	s1,168(sp)
   12a4a:	5e92                	lw	t4,36(sp)
   12a4c:	5f02                	lw	t5,32(sp)
   12a4e:	1160                	add	s0,sp,172
   12a50:	bef1                	j	1262c <_vfprintf_r+0xcfa>
   12a52:	4752                	lw	a4,20(sp)
   12a54:	010f7793          	and	a5,t5,16
   12a58:	4304                	lw	s1,0(a4)
   12a5a:	0711                	add	a4,a4,4
   12a5c:	ca3a                	sw	a4,20(sp)
   12a5e:	e3ad                	bnez	a5,12ac0 <_vfprintf_r+0x118e>
   12a60:	040f7793          	and	a5,t5,64
   12a64:	cbb1                	beqz	a5,12ab8 <_vfprintf_r+0x1186>
   12a66:	04c2                	sll	s1,s1,0x10
   12a68:	80c1                	srl	s1,s1,0x10
   12a6a:	4c81                	li	s9,0
   12a6c:	bdc1                	j	1293c <_vfprintf_r+0x100a>
   12a6e:	4b01                	li	s6,0
   12a70:	15010c13          	add	s8,sp,336
   12a74:	eb4ff06f          	j	12128 <_vfprintf_r+0x7f6>
   12a78:	45a2                	lw	a1,8(sp)
   12a7a:	1110                	add	a2,sp,160
   12a7c:	854e                	mv	a0,s3
   12a7e:	d276                	sw	t4,36(sp)
   12a80:	d07a                	sw	t5,32(sp)
   12a82:	020010ef          	jal	13aa2 <__sprint_r>
   12a86:	9e051a63          	bnez	a0,11c7a <_vfprintf_r+0x348>
   12a8a:	54aa                	lw	s1,168(sp)
   12a8c:	5d1a                	lw	s10,164(sp)
   12a8e:	5e92                	lw	t4,36(sp)
   12a90:	5f02                	lw	t5,32(sp)
   12a92:	0ac10a93          	add	s5,sp,172
   12a96:	bc59                	j	1252c <_vfprintf_r+0xbfa>
   12a98:	45a2                	lw	a1,8(sp)
   12a9a:	1110                	add	a2,sp,160
   12a9c:	854e                	mv	a0,s3
   12a9e:	d276                	sw	t4,36(sp)
   12aa0:	d07a                	sw	t5,32(sp)
   12aa2:	000010ef          	jal	13aa2 <__sprint_r>
   12aa6:	9c051a63          	bnez	a0,11c7a <_vfprintf_r+0x348>
   12aaa:	54aa                	lw	s1,168(sp)
   12aac:	5d1a                	lw	s10,164(sp)
   12aae:	5e92                	lw	t4,36(sp)
   12ab0:	5f02                	lw	t5,32(sp)
   12ab2:	0ac10a93          	add	s5,sp,172
   12ab6:	bca9                	j	12510 <_vfprintf_r+0xbde>
   12ab8:	200f7793          	and	a5,t5,512
   12abc:	52079c63          	bnez	a5,12ff4 <_vfprintf_r+0x16c2>
   12ac0:	4c81                	li	s9,0
   12ac2:	bdad                	j	1293c <_vfprintf_r+0x100a>
   12ac4:	ccccdb37          	lui	s6,0xccccd
   12ac8:	ccccdab7          	lui	s5,0xccccd
   12acc:	5772                	lw	a4,60(sp)
   12ace:	400d7f13          	and	t5,s10,1024
   12ad2:	4581                	li	a1,0
   12ad4:	0a90                	add	a2,sp,336
   12ad6:	4895                	li	a7,5
   12ad8:	ccdb0b13          	add	s6,s6,-819 # cccccccd <__BSS_END__+0xcccaef31>
   12adc:	ccca8a93          	add	s5,s5,-820 # cccccccc <__BSS_END__+0xcccaef30>
   12ae0:	0ff00a13          	li	s4,255
   12ae4:	a081                	j	12b24 <_vfprintf_r+0x11f2>
   12ae6:	009c37b3          	sltu	a5,s8,s1
   12aea:	97e2                	add	a5,a5,s8
   12aec:	0317f7b3          	remu	a5,a5,a7
   12af0:	40f487b3          	sub	a5,s1,a5
   12af4:	00f4b633          	sltu	a2,s1,a5
   12af8:	40cc8633          	sub	a2,s9,a2
   12afc:	03578833          	mul	a6,a5,s5
   12b00:	03660633          	mul	a2,a2,s6
   12b04:	0367b533          	mulhu	a0,a5,s6
   12b08:	9642                	add	a2,a2,a6
   12b0a:	036787b3          	mul	a5,a5,s6
   12b0e:	962a                	add	a2,a2,a0
   12b10:	01f61513          	sll	a0,a2,0x1f
   12b14:	8205                	srl	a2,a2,0x1
   12b16:	8385                	srl	a5,a5,0x1
   12b18:	8fc9                	or	a5,a5,a0
   12b1a:	280c83e3          	beqz	s9,135a0 <_vfprintf_r+0x1c6e>
   12b1e:	8cb2                	mv	s9,a2
   12b20:	84be                	mv	s1,a5
   12b22:	8636                	mv	a2,a3
   12b24:	01948c33          	add	s8,s1,s9
   12b28:	009c37b3          	sltu	a5,s8,s1
   12b2c:	97e2                	add	a5,a5,s8
   12b2e:	0317f7b3          	remu	a5,a5,a7
   12b32:	fff60693          	add	a3,a2,-1
   12b36:	0585                	add	a1,a1,1
   12b38:	40f487b3          	sub	a5,s1,a5
   12b3c:	00f4b533          	sltu	a0,s1,a5
   12b40:	40ac8533          	sub	a0,s9,a0
   12b44:	0367b833          	mulhu	a6,a5,s6
   12b48:	03650533          	mul	a0,a0,s6
   12b4c:	036787b3          	mul	a5,a5,s6
   12b50:	9542                	add	a0,a0,a6
   12b52:	057e                	sll	a0,a0,0x1f
   12b54:	8385                	srl	a5,a5,0x1
   12b56:	8fc9                	or	a5,a5,a0
   12b58:	00279513          	sll	a0,a5,0x2
   12b5c:	97aa                	add	a5,a5,a0
   12b5e:	0786                	sll	a5,a5,0x1
   12b60:	40f487b3          	sub	a5,s1,a5
   12b64:	03078793          	add	a5,a5,48
   12b68:	fef60fa3          	sb	a5,-1(a2)
   12b6c:	f60f0de3          	beqz	t5,12ae6 <_vfprintf_r+0x11b4>
   12b70:	00074783          	lbu	a5,0(a4)
   12b74:	f6f599e3          	bne	a1,a5,12ae6 <_vfprintf_r+0x11b4>
   12b78:	f74587e3          	beq	a1,s4,12ae6 <_vfprintf_r+0x11b4>
   12b7c:	140c98e3          	bnez	s9,134cc <_vfprintf_r+0x1b9a>
   12b80:	47a5                	li	a5,9
   12b82:	1497e5e3          	bltu	a5,s1,134cc <_vfprintf_r+0x1b9a>
   12b86:	8c36                	mv	s8,a3
   12b88:	0a9c                	add	a5,sp,336
   12b8a:	de3a                	sw	a4,60(sp)
   12b8c:	cc2e                	sw	a1,24(sp)
   12b8e:	41878b33          	sub	s6,a5,s8
   12b92:	8f6a                	mv	t5,s10
   12b94:	d94ff06f          	j	12128 <_vfprintf_r+0x7f6>
   12b98:	45a2                	lw	a1,8(sp)
   12b9a:	1110                	add	a2,sp,160
   12b9c:	854e                	mv	a0,s3
   12b9e:	ce9a                	sw	t1,92(sp)
   12ba0:	ccf6                	sw	t4,88(sp)
   12ba2:	caf2                	sw	t3,84(sp)
   12ba4:	c4fa                	sw	t5,72(sp)
   12ba6:	c296                	sw	t0,68(sp)
   12ba8:	6fb000ef          	jal	13aa2 <__sprint_r>
   12bac:	8c051763          	bnez	a0,11c7a <_vfprintf_r+0x348>
   12bb0:	07714603          	lbu	a2,119(sp)
   12bb4:	54aa                	lw	s1,168(sp)
   12bb6:	4376                	lw	t1,92(sp)
   12bb8:	4ee6                	lw	t4,88(sp)
   12bba:	4e56                	lw	t3,84(sp)
   12bbc:	4f26                	lw	t5,72(sp)
   12bbe:	4296                	lw	t0,68(sp)
   12bc0:	1160                	add	s0,sp,172
   12bc2:	f21fe06f          	j	11ae2 <_vfprintf_r+0x1b0>
   12bc6:	854e                	mv	a0,s3
   12bc8:	e7dfd0ef          	jal	10a44 <__sinit>
   12bcc:	47b2                	lw	a5,12(sp)
   12bce:	da7fe06f          	j	11974 <_vfprintf_r+0x42>
   12bd2:	58a2                	lw	a7,40(sp)
   12bd4:	5732                	lw	a4,44(sp)
   12bd6:	c29a                	sw	t1,68(sp)
   12bd8:	8646                	mv	a2,a7
   12bda:	8546                	mv	a0,a7
   12bdc:	86ba                	mv	a3,a4
   12bde:	85ba                	mv	a1,a4
   12be0:	d276                	sw	t4,36(sp)
   12be2:	d072                	sw	t3,32(sp)
   12be4:	c87a                	sw	t5,16(sp)
   12be6:	799080ef          	jal	1bb7e <__unorddf2>
   12bea:	4f42                	lw	t5,16(sp)
   12bec:	5e02                	lw	t3,32(sp)
   12bee:	5e92                	lw	t4,36(sp)
   12bf0:	4316                	lw	t1,68(sp)
   12bf2:	380515e3          	bnez	a0,1377c <_vfprintf_r+0x1e4a>
   12bf6:	06100713          	li	a4,97
   12bfa:	06ee0263          	beq	t3,a4,12c5e <_vfprintf_r+0x132c>
   12bfe:	04100713          	li	a4,65
   12c02:	05800793          	li	a5,88
   12c06:	04ee0e63          	beq	t3,a4,12c62 <_vfprintf_r+0x1330>
   12c0a:	577d                	li	a4,-1
   12c0c:	34e303e3          	beq	t1,a4,13752 <_vfprintf_r+0x1e20>
   12c10:	fdfe7713          	and	a4,t3,-33
   12c14:	04700693          	li	a3,71
   12c18:	c802                	sw	zero,16(sp)
   12c1a:	00d71563          	bne	a4,a3,12c24 <_vfprintf_r+0x12f2>
   12c1e:	00031363          	bnez	t1,12c24 <_vfprintf_r+0x12f2>
   12c22:	4305                	li	t1,1
   12c24:	100f6793          	or	a5,t5,256
   12c28:	8abe                	mv	s5,a5
   12c2a:	57b2                	lw	a5,44(sp)
   12c2c:	c282                	sw	zero,68(sp)
   12c2e:	84be                	mv	s1,a5
   12c30:	0007d863          	bgez	a5,12c40 <_vfprintf_r+0x130e>
   12c34:	800004b7          	lui	s1,0x80000
   12c38:	8cbd                	xor	s1,s1,a5
   12c3a:	02d00793          	li	a5,45
   12c3e:	c2be                	sw	a5,68(sp)
   12c40:	fbfe0713          	add	a4,t3,-65
   12c44:	02500693          	li	a3,37
   12c48:	26e6e463          	bltu	a3,a4,12eb0 <_vfprintf_r+0x157e>
   12c4c:	0000a697          	auipc	a3,0xa
   12c50:	82c68693          	add	a3,a3,-2004 # 1c478 <__clzsi2+0x4d2>
   12c54:	070a                	sll	a4,a4,0x2
   12c56:	9736                	add	a4,a4,a3
   12c58:	4318                	lw	a4,0(a4)
   12c5a:	9736                	add	a4,a4,a3
   12c5c:	8702                	jr	a4
   12c5e:	07800793          	li	a5,120
   12c62:	03000713          	li	a4,48
   12c66:	06e10c23          	sb	a4,120(sp)
   12c6a:	06f10ca3          	sb	a5,121(sp)
   12c6e:	06300713          	li	a4,99
   12c72:	c802                	sw	zero,16(sp)
   12c74:	002f6f13          	or	t5,t5,2
   12c78:	0ec10c13          	add	s8,sp,236
   12c7c:	fa6754e3          	bge	a4,t1,12c24 <_vfprintf_r+0x12f2>
   12c80:	00130593          	add	a1,t1,1
   12c84:	854e                	mv	a0,s3
   12c86:	d276                	sw	t4,36(sp)
   12c88:	d072                	sw	t3,32(sp)
   12c8a:	cc7a                	sw	t5,24(sp)
   12c8c:	c81a                	sw	t1,16(sp)
   12c8e:	ee6fe0ef          	jal	11374 <_malloc_r>
   12c92:	4342                	lw	t1,16(sp)
   12c94:	4f62                	lw	t5,24(sp)
   12c96:	5e02                	lw	t3,32(sp)
   12c98:	5e92                	lw	t4,36(sp)
   12c9a:	8c2a                	mv	s8,a0
   12c9c:	44050fe3          	beqz	a0,138fa <_vfprintf_r+0x1fc8>
   12ca0:	c82a                	sw	a0,16(sp)
   12ca2:	b749                	j	12c24 <_vfprintf_r+0x12f2>
   12ca4:	45a2                	lw	a1,8(sp)
   12ca6:	1110                	add	a2,sp,160
   12ca8:	854e                	mv	a0,s3
   12caa:	d276                	sw	t4,36(sp)
   12cac:	d07a                	sw	t5,32(sp)
   12cae:	5f5000ef          	jal	13aa2 <__sprint_r>
   12cb2:	c119                	beqz	a0,12cb8 <_vfprintf_r+0x1386>
   12cb4:	fc7fe06f          	j	11c7a <_vfprintf_r+0x348>
   12cb8:	54aa                	lw	s1,168(sp)
   12cba:	5d1a                	lw	s10,164(sp)
   12cbc:	5f02                	lw	t5,32(sp)
   12cbe:	5e92                	lw	t4,36(sp)
   12cc0:	0ac10a93          	add	s5,sp,172
   12cc4:	b05d                	j	1256a <_vfprintf_r+0xc38>
   12cc6:	45a2                	lw	a1,8(sp)
   12cc8:	1110                	add	a2,sp,160
   12cca:	854e                	mv	a0,s3
   12ccc:	d276                	sw	t4,36(sp)
   12cce:	d07a                	sw	t5,32(sp)
   12cd0:	5d3000ef          	jal	13aa2 <__sprint_r>
   12cd4:	c119                	beqz	a0,12cda <_vfprintf_r+0x13a8>
   12cd6:	fa5fe06f          	j	11c7a <_vfprintf_r+0x348>
   12cda:	54aa                	lw	s1,168(sp)
   12cdc:	5e92                	lw	t4,36(sp)
   12cde:	5f02                	lw	t5,32(sp)
   12ce0:	1160                	add	s0,sp,172
   12ce2:	d94ff06f          	j	12276 <_vfprintf_r+0x944>
   12ce6:	4621                	li	a2,8
   12ce8:	4581                	li	a1,0
   12cea:	0928                	add	a0,sp,152
   12cec:	d21a                	sw	t1,36(sp)
   12cee:	d076                	sw	t4,32(sp)
   12cf0:	ca72                	sw	t3,20(sp)
   12cf2:	c87a                	sw	t5,16(sp)
   12cf4:	c362                	sw	s8,132(sp)
   12cf6:	96afe0ef          	jal	10e60 <memset>
   12cfa:	5312                	lw	t1,36(sp)
   12cfc:	4f42                	lw	t5,16(sp)
   12cfe:	4e52                	lw	t3,20(sp)
   12d00:	5e82                	lw	t4,32(sp)
   12d02:	5e034c63          	bltz	t1,132fa <_vfprintf_r+0x19c8>
   12d06:	4b01                	li	s6,0
   12d08:	c84a                	sw	s2,16(sp)
   12d0a:	4c81                	li	s9,0
   12d0c:	895a                	mv	s2,s6
   12d0e:	54fd                	li	s1,-1
   12d10:	8b56                	mv	s6,s5
   12d12:	8a7a                	mv	s4,t5
   12d14:	8aa2                	mv	s5,s0
   12d16:	8d72                	mv	s10,t3
   12d18:	ca76                	sw	t4,20(sp)
   12d1a:	841a                	mv	s0,t1
   12d1c:	a005                	j	12d3c <_vfprintf_r+0x140a>
   12d1e:	0934                	add	a3,sp,152
   12d20:	11ec                	add	a1,sp,236
   12d22:	854e                	mv	a0,s3
   12d24:	466060ef          	jal	1918a <_wcrtomb_r>
   12d28:	229509e3          	beq	a0,s1,1375a <_vfprintf_r+0x1e28>
   12d2c:	00a907b3          	add	a5,s2,a0
   12d30:	00f44a63          	blt	s0,a5,12d44 <_vfprintf_r+0x1412>
   12d34:	0c91                	add	s9,s9,4
   12d36:	2c878de3          	beq	a5,s0,13810 <_vfprintf_r+0x1ede>
   12d3a:	893e                	mv	s2,a5
   12d3c:	479a                	lw	a5,132(sp)
   12d3e:	97e6                	add	a5,a5,s9
   12d40:	4390                	lw	a2,0(a5)
   12d42:	fe71                	bnez	a2,12d1e <_vfprintf_r+0x13ec>
   12d44:	8456                	mv	s0,s5
   12d46:	4ed2                	lw	t4,20(sp)
   12d48:	8ada                	mv	s5,s6
   12d4a:	8b4a                	mv	s6,s2
   12d4c:	4942                	lw	s2,16(sp)
   12d4e:	8f52                	mv	t5,s4
   12d50:	8e6a                	mv	t3,s10
   12d52:	7e0b0c63          	beqz	s6,1354a <_vfprintf_r+0x1c18>
   12d56:	06300793          	li	a5,99
   12d5a:	0f67d6e3          	bge	a5,s6,13646 <_vfprintf_r+0x1d14>
   12d5e:	001b0593          	add	a1,s6,1
   12d62:	854e                	mv	a0,s3
   12d64:	d076                	sw	t4,32(sp)
   12d66:	ca72                	sw	t3,20(sp)
   12d68:	c87a                	sw	t5,16(sp)
   12d6a:	e0afe0ef          	jal	11374 <_malloc_r>
   12d6e:	4f42                	lw	t5,16(sp)
   12d70:	4e52                	lw	t3,20(sp)
   12d72:	5e82                	lw	t4,32(sp)
   12d74:	8c2a                	mv	s8,a0
   12d76:	1e0502e3          	beqz	a0,1375a <_vfprintf_r+0x1e28>
   12d7a:	c82a                	sw	a0,16(sp)
   12d7c:	4621                	li	a2,8
   12d7e:	4581                	li	a1,0
   12d80:	0928                	add	a0,sp,152
   12d82:	d276                	sw	t4,36(sp)
   12d84:	d072                	sw	t3,32(sp)
   12d86:	ca7a                	sw	t5,20(sp)
   12d88:	8d8fe0ef          	jal	10e60 <memset>
   12d8c:	0938                	add	a4,sp,152
   12d8e:	86da                	mv	a3,s6
   12d90:	0150                	add	a2,sp,132
   12d92:	85e2                	mv	a1,s8
   12d94:	854e                	mv	a0,s3
   12d96:	4a2060ef          	jal	19238 <_wcsrtombs_r>
   12d9a:	4f52                	lw	t5,20(sp)
   12d9c:	5e02                	lw	t3,32(sp)
   12d9e:	5e92                	lw	t4,36(sp)
   12da0:	36ab1ae3          	bne	s6,a0,13914 <_vfprintf_r+0x1fe2>
   12da4:	016c0733          	add	a4,s8,s6
   12da8:	00070023          	sb	zero,0(a4)
   12dac:	07714603          	lbu	a2,119(sp)
   12db0:	fffb4813          	not	a6,s6
   12db4:	41f85813          	sra	a6,a6,0x1f
   12db8:	ca56                	sw	s5,20(sp)
   12dba:	d202                	sw	zero,36(sp)
   12dbc:	d002                	sw	zero,32(sp)
   12dbe:	010b7cb3          	and	s9,s6,a6
   12dc2:	4301                	li	t1,0
   12dc4:	4a01                	li	s4,0
   12dc6:	e219                	bnez	a2,12dcc <_vfprintf_r+0x149a>
   12dc8:	cfffe06f          	j	11ac6 <_vfprintf_r+0x194>
   12dcc:	fd9fe06f          	j	11da4 <_vfprintf_r+0x472>
   12dd0:	8ea6                	mv	t4,s1
   12dd2:	8f62                	mv	t5,s8
   12dd4:	84ba                	mv	s1,a4
   12dd6:	82d2                	mv	t0,s4
   12dd8:	00542023          	sw	t0,0(s0)
   12ddc:	01a42223          	sw	s10,4(s0)
   12de0:	94ea                	add	s1,s1,s10
   12de2:	0785                	add	a5,a5,1
   12de4:	d526                	sw	s1,168(sp)
   12de6:	d33e                	sw	a5,164(sp)
   12de8:	471d                	li	a4,7
   12dea:	00f74463          	blt	a4,a5,12df2 <_vfprintf_r+0x14c0>
   12dee:	d61fe06f          	j	11b4e <_vfprintf_r+0x21c>
   12df2:	8b0ff06f          	j	11ea2 <_vfprintf_r+0x570>
   12df6:	47d2                	lw	a5,20(sp)
   12df8:	4732                	lw	a4,12(sp)
   12dfa:	439c                	lw	a5,0(a5)
   12dfc:	c398                	sw	a4,0(a5)
   12dfe:	c28ff06f          	j	12226 <_vfprintf_r+0x8f4>
   12e02:	5f02                	lw	t5,32(sp)
   12e04:	8ea6                	mv	t4,s1
   12e06:	82a2                	mv	t0,s0
   12e08:	84be                	mv	s1,a5
   12e0a:	8452                	mv	s0,s4
   12e0c:	94a2                	add	s1,s1,s0
   12e0e:	0d05                	add	s10,s10,1
   12e10:	005aa023          	sw	t0,0(s5)
   12e14:	f46ff06f          	j	1255a <_vfprintf_r+0xc28>
   12e18:	4641                	li	a2,16
   12e1a:	569a                	lw	a3,164(sp)
   12e1c:	00009297          	auipc	t0,0x9
   12e20:	6f428293          	add	t0,t0,1780 # 1c510 <zeroes.0>
   12e24:	05565a63          	bge	a2,s5,12e78 <_vfprintf_r+0x1546>
   12e28:	87a2                	mv	a5,s0
   12e2a:	8726                	mv	a4,s1
   12e2c:	4d22                	lw	s10,8(sp)
   12e2e:	48c1                	li	a7,16
   12e30:	4b1d                	li	s6,7
   12e32:	c2fa                	sw	t5,68(sp)
   12e34:	84f6                	mv	s1,t4
   12e36:	8416                	mv	s0,t0
   12e38:	a021                	j	12e40 <_vfprintf_r+0x150e>
   12e3a:	1ac1                	add	s5,s5,-16
   12e3c:	0358d963          	bge	a7,s5,12e6e <_vfprintf_r+0x153c>
   12e40:	0741                	add	a4,a4,16
   12e42:	0685                	add	a3,a3,1
   12e44:	c380                	sw	s0,0(a5)
   12e46:	0117a223          	sw	a7,4(a5)
   12e4a:	d53a                	sw	a4,168(sp)
   12e4c:	d336                	sw	a3,164(sp)
   12e4e:	07a1                	add	a5,a5,8
   12e50:	fedb55e3          	bge	s6,a3,12e3a <_vfprintf_r+0x1508>
   12e54:	1110                	add	a2,sp,160
   12e56:	85ea                	mv	a1,s10
   12e58:	854e                	mv	a0,s3
   12e5a:	449000ef          	jal	13aa2 <__sprint_r>
   12e5e:	c119                	beqz	a0,12e64 <_vfprintf_r+0x1532>
   12e60:	e1bfe06f          	j	11c7a <_vfprintf_r+0x348>
   12e64:	572a                	lw	a4,168(sp)
   12e66:	569a                	lw	a3,164(sp)
   12e68:	117c                	add	a5,sp,172
   12e6a:	48c1                	li	a7,16
   12e6c:	b7f9                	j	12e3a <_vfprintf_r+0x1508>
   12e6e:	4f16                	lw	t5,68(sp)
   12e70:	8ea6                	mv	t4,s1
   12e72:	82a2                	mv	t0,s0
   12e74:	84ba                	mv	s1,a4
   12e76:	843e                	mv	s0,a5
   12e78:	94d6                	add	s1,s1,s5
   12e7a:	0685                	add	a3,a3,1
   12e7c:	00542023          	sw	t0,0(s0)
   12e80:	01542223          	sw	s5,4(s0)
   12e84:	d526                	sw	s1,168(sp)
   12e86:	d336                	sw	a3,164(sp)
   12e88:	471d                	li	a4,7
   12e8a:	0421                	add	s0,s0,8
   12e8c:	f8d75263          	bge	a4,a3,12610 <_vfprintf_r+0xcde>
   12e90:	45a2                	lw	a1,8(sp)
   12e92:	1110                	add	a2,sp,160
   12e94:	854e                	mv	a0,s3
   12e96:	c4f6                	sw	t4,72(sp)
   12e98:	c2fa                	sw	t5,68(sp)
   12e9a:	409000ef          	jal	13aa2 <__sprint_r>
   12e9e:	c119                	beqz	a0,12ea4 <_vfprintf_r+0x1572>
   12ea0:	ddbfe06f          	j	11c7a <_vfprintf_r+0x348>
   12ea4:	54aa                	lw	s1,168(sp)
   12ea6:	4ea6                	lw	t4,72(sp)
   12ea8:	4f16                	lw	t5,68(sp)
   12eaa:	1160                	add	s0,sp,172
   12eac:	f64ff06f          	j	12610 <_vfprintf_r+0xcde>
   12eb0:	5722                	lw	a4,40(sp)
   12eb2:	09810893          	add	a7,sp,152
   12eb6:	08410813          	add	a6,sp,132
   12eba:	853a                	mv	a0,a4
   12ebc:	85aa                	mv	a1,a0
   12ebe:	871a                	mv	a4,t1
   12ec0:	18fc                	add	a5,sp,124
   12ec2:	4689                	li	a3,2
   12ec4:	8626                	mv	a2,s1
   12ec6:	854e                	mv	a0,s3
   12ec8:	c4f6                	sw	t4,72(sp)
   12eca:	d272                	sw	t3,36(sp)
   12ecc:	d07a                	sw	t5,32(sp)
   12ece:	cc1a                	sw	t1,24(sp)
   12ed0:	009030ef          	jal	166d8 <_dtoa_r>
   12ed4:	5f02                	lw	t5,32(sp)
   12ed6:	4362                	lw	t1,24(sp)
   12ed8:	5e12                	lw	t3,36(sp)
   12eda:	001f7713          	and	a4,t5,1
   12ede:	4ea6                	lw	t4,72(sp)
   12ee0:	8c2a                	mv	s8,a0
   12ee2:	6c071463          	bnez	a4,135aa <_vfprintf_r+0x1c78>
   12ee6:	4b6a                	lw	s6,152(sp)
   12ee8:	5a76                	lw	s4,124(sp)
   12eea:	40ab07b3          	sub	a5,s6,a0
   12eee:	cc3e                	sw	a5,24(sp)
   12ef0:	5775                	li	a4,-3
   12ef2:	00ea4463          	blt	s4,a4,12efa <_vfprintf_r+0x15c8>
   12ef6:	59435763          	bge	t1,s4,13484 <_vfprintf_r+0x1b52>
   12efa:	1e79                	add	t3,t3,-2
   12efc:	fffa0313          	add	t1,s4,-1
   12f00:	de9a                	sw	t1,124(sp)
   12f02:	0ffe7713          	zext.b	a4,t3
   12f06:	4681                	li	a3,0
   12f08:	08e10423          	sb	a4,136(sp)
   12f0c:	02b00713          	li	a4,43
   12f10:	00035763          	bgez	t1,12f1e <_vfprintf_r+0x15ec>
   12f14:	4305                	li	t1,1
   12f16:	41430333          	sub	t1,t1,s4
   12f1a:	02d00713          	li	a4,45
   12f1e:	08e104a3          	sb	a4,137(sp)
   12f22:	4725                	li	a4,9
   12f24:	006752e3          	bge	a4,t1,13728 <_vfprintf_r+0x1df6>
   12f28:	09f10893          	add	a7,sp,159
   12f2c:	8fc6                	mv	t6,a7
   12f2e:	4629                	li	a2,10
   12f30:	06300513          	li	a0,99
   12f34:	02c367b3          	rem	a5,t1,a2
   12f38:	887e                	mv	a6,t6
   12f3a:	871a                	mv	a4,t1
   12f3c:	1ffd                	add	t6,t6,-1
   12f3e:	03078793          	add	a5,a5,48
   12f42:	fef80fa3          	sb	a5,-1(a6)
   12f46:	02c34333          	div	t1,t1,a2
   12f4a:	fee545e3          	blt	a0,a4,12f34 <_vfprintf_r+0x1602>
   12f4e:	03030313          	add	t1,t1,48
   12f52:	ffe80713          	add	a4,a6,-2
   12f56:	fe6f8fa3          	sb	t1,-1(t6)
   12f5a:	19177ce3          	bgeu	a4,a7,138f2 <_vfprintf_r+0x1fc0>
   12f5e:	08a10693          	add	a3,sp,138
   12f62:	00074783          	lbu	a5,0(a4)
   12f66:	0705                	add	a4,a4,1
   12f68:	0685                	add	a3,a3,1
   12f6a:	fef68fa3          	sb	a5,-1(a3)
   12f6e:	ff171ae3          	bne	a4,a7,12f62 <_vfprintf_r+0x1630>
   12f72:	0a9c                	add	a5,sp,336
   12f74:	41078733          	sub	a4,a5,a6
   12f78:	f5370793          	add	a5,a4,-173
   12f7c:	c0be                	sw	a5,64(sp)
   12f7e:	47e2                	lw	a5,24(sp)
   12f80:	4686                	lw	a3,64(sp)
   12f82:	4705                	li	a4,1
   12f84:	00d78b33          	add	s6,a5,a3
   12f88:	7ef75463          	bge	a4,a5,13770 <_vfprintf_r+0x1e3e>
   12f8c:	57c2                	lw	a5,48(sp)
   12f8e:	9b3e                	add	s6,s6,a5
   12f90:	fffb4813          	not	a6,s6
   12f94:	bfff7f13          	and	t5,t5,-1025
   12f98:	41f85813          	sra	a6,a6,0x1f
   12f9c:	100f6f13          	or	t5,t5,256
   12fa0:	010b7cb3          	and	s9,s6,a6
   12fa4:	d202                	sw	zero,36(sp)
   12fa6:	d002                	sw	zero,32(sp)
   12fa8:	4a01                	li	s4,0
   12faa:	4796                	lw	a5,68(sp)
   12fac:	32079d63          	bnez	a5,132e6 <_vfprintf_r+0x19b4>
   12fb0:	07714603          	lbu	a2,119(sp)
   12fb4:	4301                	li	t1,0
   12fb6:	e219                	bnez	a2,12fbc <_vfprintf_r+0x168a>
   12fb8:	b0ffe06f          	j	11ac6 <_vfprintf_r+0x194>
   12fbc:	de9fe06f          	j	11da4 <_vfprintf_r+0x472>
   12fc0:	45a2                	lw	a1,8(sp)
   12fc2:	1110                	add	a2,sp,160
   12fc4:	854e                	mv	a0,s3
   12fc6:	d276                	sw	t4,36(sp)
   12fc8:	d07a                	sw	t5,32(sp)
   12fca:	2d9000ef          	jal	13aa2 <__sprint_r>
   12fce:	c119                	beqz	a0,12fd4 <_vfprintf_r+0x16a2>
   12fd0:	cabfe06f          	j	11c7a <_vfprintf_r+0x348>
   12fd4:	5676                	lw	a2,124(sp)
   12fd6:	54aa                	lw	s1,168(sp)
   12fd8:	5e92                	lw	t4,36(sp)
   12fda:	5f02                	lw	t5,32(sp)
   12fdc:	1160                	add	s0,sp,172
   12fde:	83fff06f          	j	1281c <_vfprintf_r+0xeea>
   12fe2:	4c99                	li	s9,6
   12fe4:	bae9                	j	129be <_vfprintf_r+0x108c>
   12fe6:	47d2                	lw	a5,20(sp)
   12fe8:	4732                	lw	a4,12(sp)
   12fea:	439c                	lw	a5,0(a5)
   12fec:	00e79023          	sh	a4,0(a5)
   12ff0:	a36ff06f          	j	12226 <_vfprintf_r+0x8f4>
   12ff4:	0ff4f493          	zext.b	s1,s1
   12ff8:	4c81                	li	s9,0
   12ffa:	b289                	j	1293c <_vfprintf_r+0x100a>
   12ffc:	04e2                	sll	s1,s1,0x18
   12ffe:	84e1                	sra	s1,s1,0x18
   13000:	41f4dc93          	sra	s9,s1,0x1f
   13004:	87e6                	mv	a5,s9
   13006:	99cff06f          	j	121a2 <_vfprintf_r+0x870>
   1300a:	0ff4f493          	zext.b	s1,s1
   1300e:	4c81                	li	s9,0
   13010:	8e8ff06f          	j	120f8 <_vfprintf_r+0x7c6>
   13014:	45a2                	lw	a1,8(sp)
   13016:	1110                	add	a2,sp,160
   13018:	854e                	mv	a0,s3
   1301a:	289000ef          	jal	13aa2 <__sprint_r>
   1301e:	e119                	bnez	a0,13024 <_vfprintf_r+0x16f2>
   13020:	c33fe06f          	j	11c52 <_vfprintf_r+0x320>
   13024:	c65fe06f          	j	11c88 <_vfprintf_r+0x356>
   13028:	8562                	mv	a0,s8
   1302a:	c4f6                	sw	t4,72(sp)
   1302c:	c2fa                	sw	t5,68(sp)
   1302e:	2ee030ef          	jal	1631c <strlen>
   13032:	07714603          	lbu	a2,119(sp)
   13036:	fff54813          	not	a6,a0
   1303a:	41f85813          	sra	a6,a6,0x1f
   1303e:	ca56                	sw	s5,20(sp)
   13040:	d202                	sw	zero,36(sp)
   13042:	d002                	sw	zero,32(sp)
   13044:	c802                	sw	zero,16(sp)
   13046:	4f16                	lw	t5,68(sp)
   13048:	4ea6                	lw	t4,72(sp)
   1304a:	8b2a                	mv	s6,a0
   1304c:	01057cb3          	and	s9,a0,a6
   13050:	4301                	li	t1,0
   13052:	07300e13          	li	t3,115
   13056:	e219                	bnez	a2,1305c <_vfprintf_r+0x172a>
   13058:	a6ffe06f          	j	11ac6 <_vfprintf_r+0x194>
   1305c:	d49fe06f          	j	11da4 <_vfprintf_r+0x472>
   13060:	45a2                	lw	a1,8(sp)
   13062:	1110                	add	a2,sp,160
   13064:	854e                	mv	a0,s3
   13066:	d276                	sw	t4,36(sp)
   13068:	d07a                	sw	t5,32(sp)
   1306a:	239000ef          	jal	13aa2 <__sprint_r>
   1306e:	c119                	beqz	a0,13074 <_vfprintf_r+0x1742>
   13070:	c0bfe06f          	j	11c7a <_vfprintf_r+0x348>
   13074:	5676                	lw	a2,124(sp)
   13076:	55aa                	lw	a1,168(sp)
   13078:	571a                	lw	a4,164(sp)
   1307a:	5e92                	lw	t4,36(sp)
   1307c:	5f02                	lw	t5,32(sp)
   1307e:	1160                	add	s0,sp,172
   13080:	e03fe06f          	j	11e82 <_vfprintf_r+0x550>
   13084:	4e28                	lw	a0,88(a2)
   13086:	c63e                	sw	a5,12(sp)
   13088:	dd7fd0ef          	jal	10e5e <__retarget_lock_release_recursive>
   1308c:	47b2                	lw	a5,12(sp)
   1308e:	b33fe06f          	j	11bc0 <_vfprintf_r+0x28e>
   13092:	00130b13          	add	s6,t1,1
   13096:	4689                	li	a3,2
   13098:	5722                	lw	a4,40(sp)
   1309a:	08410813          	add	a6,sp,132
   1309e:	09810893          	add	a7,sp,152
   130a2:	853a                	mv	a0,a4
   130a4:	85aa                	mv	a1,a0
   130a6:	875a                	mv	a4,s6
   130a8:	18fc                	add	a5,sp,124
   130aa:	8626                	mv	a2,s1
   130ac:	854e                	mv	a0,s3
   130ae:	c49a                	sw	t1,72(sp)
   130b0:	d276                	sw	t4,36(sp)
   130b2:	d072                	sw	t3,32(sp)
   130b4:	cc7a                	sw	t5,24(sp)
   130b6:	622030ef          	jal	166d8 <_dtoa_r>
   130ba:	5e02                	lw	t3,32(sp)
   130bc:	04600693          	li	a3,70
   130c0:	4f62                	lw	t5,24(sp)
   130c2:	fdfe7813          	and	a6,t3,-33
   130c6:	5e92                	lw	t4,36(sp)
   130c8:	4326                	lw	t1,72(sp)
   130ca:	8c2a                	mv	s8,a0
   130cc:	01650733          	add	a4,a0,s6
   130d0:	02d81ee3          	bne	a6,a3,1390c <_vfprintf_r+0x1fda>
   130d4:	000c4603          	lbu	a2,0(s8)
   130d8:	03000693          	li	a3,48
   130dc:	50d60263          	beq	a2,a3,135e0 <_vfprintf_r+0x1cae>
   130e0:	56f6                	lw	a3,124(sp)
   130e2:	9736                	add	a4,a4,a3
   130e4:	56a2                	lw	a3,40(sp)
   130e6:	85a6                	mv	a1,s1
   130e8:	4601                	li	a2,0
   130ea:	8536                	mv	a0,a3
   130ec:	4681                	li	a3,0
   130ee:	ccba                	sw	a4,88(sp)
   130f0:	ca9a                	sw	t1,84(sp)
   130f2:	c4f6                	sw	t4,72(sp)
   130f4:	d272                	sw	t3,36(sp)
   130f6:	d07a                	sw	t5,32(sp)
   130f8:	cc42                	sw	a6,24(sp)
   130fa:	42d070ef          	jal	1ad26 <__eqdf2>
   130fe:	4862                	lw	a6,24(sp)
   13100:	5f02                	lw	t5,32(sp)
   13102:	5e12                	lw	t3,36(sp)
   13104:	4ea6                	lw	t4,72(sp)
   13106:	4356                	lw	t1,84(sp)
   13108:	4766                	lw	a4,88(sp)
   1310a:	4a050563          	beqz	a0,135b4 <_vfprintf_r+0x1c82>
   1310e:	4b6a                	lw	s6,152(sp)
   13110:	00eb7c63          	bgeu	s6,a4,13128 <_vfprintf_r+0x17f6>
   13114:	03000613          	li	a2,48
   13118:	001b0793          	add	a5,s6,1
   1311c:	cd3e                	sw	a5,152(sp)
   1311e:	00cb0023          	sb	a2,0(s6)
   13122:	4b6a                	lw	s6,152(sp)
   13124:	feeb6ae3          	bltu	s6,a4,13118 <_vfprintf_r+0x17e6>
   13128:	5a76                	lw	s4,124(sp)
   1312a:	418b07b3          	sub	a5,s6,s8
   1312e:	04700713          	li	a4,71
   13132:	cc3e                	sw	a5,24(sp)
   13134:	dae80ee3          	beq	a6,a4,12ef0 <_vfprintf_r+0x15be>
   13138:	04600713          	li	a4,70
   1313c:	4ce80c63          	beq	a6,a4,13614 <_vfprintf_r+0x1ce2>
   13140:	fffa0313          	add	t1,s4,-1
   13144:	bb75                	j	12f00 <_vfprintf_r+0x15ce>
   13146:	5722                	lw	a4,40(sp)
   13148:	18f0                	add	a2,sp,124
   1314a:	85a6                	mv	a1,s1
   1314c:	853a                	mv	a0,a4
   1314e:	c09a                	sw	t1,64(sp)
   13150:	d276                	sw	t4,36(sp)
   13152:	d072                	sw	t3,32(sp)
   13154:	cc7a                	sw	t5,24(sp)
   13156:	3c0030ef          	jal	16516 <frexp>
   1315a:	0000a717          	auipc	a4,0xa
   1315e:	58670713          	add	a4,a4,1414 # 1d6e0 <__SDATA_BEGIN__+0x8>
   13162:	4310                	lw	a2,0(a4)
   13164:	4354                	lw	a3,4(a4)
   13166:	5ad070ef          	jal	1af12 <__muldf3>
   1316a:	4601                	li	a2,0
   1316c:	4681                	li	a3,0
   1316e:	8b2a                	mv	s6,a0
   13170:	8d2e                	mv	s10,a1
   13172:	3b5070ef          	jal	1ad26 <__eqdf2>
   13176:	4f62                	lw	t5,24(sp)
   13178:	5e02                	lw	t3,32(sp)
   1317a:	5e92                	lw	t4,36(sp)
   1317c:	4306                	lw	t1,64(sp)
   1317e:	e119                	bnez	a0,13184 <_vfprintf_r+0x1852>
   13180:	4705                	li	a4,1
   13182:	deba                	sw	a4,124(sp)
   13184:	00009797          	auipc	a5,0x9
   13188:	ed078793          	add	a5,a5,-304 # 1c054 <__clzsi2+0xae>
   1318c:	06100713          	li	a4,97
   13190:	d03e                	sw	a5,32(sp)
   13192:	00ee1763          	bne	t3,a4,131a0 <_vfprintf_r+0x186e>
   13196:	00009797          	auipc	a5,0x9
   1319a:	eaa78793          	add	a5,a5,-342 # 1c040 <__clzsi2+0x9a>
   1319e:	d03e                	sw	a5,32(sp)
   131a0:	0000a717          	auipc	a4,0xa
   131a4:	54870713          	add	a4,a4,1352 # 1d6e8 <__SDATA_BEGIN__+0x10>
   131a8:	431c                	lw	a5,0(a4)
   131aa:	00472803          	lw	a6,4(a4)
   131ae:	d24a                	sw	s2,36(sp)
   131b0:	cc3e                	sw	a5,24(sp)
   131b2:	87ea                	mv	a5,s10
   131b4:	895a                	mv	s2,s6
   131b6:	8d62                	mv	s10,s8
   131b8:	8b22                	mv	s6,s0
   131ba:	5482                	lw	s1,32(sp)
   131bc:	8462                	mv	s0,s8
   131be:	ce42                	sw	a6,28(sp)
   131c0:	8c4e                	mv	s8,s3
   131c2:	fff30a93          	add	s5,t1,-1
   131c6:	5cfd                	li	s9,-1
   131c8:	c0fa                	sw	t5,64(sp)
   131ca:	c4f2                	sw	t3,72(sp)
   131cc:	caf6                	sw	t4,84(sp)
   131ce:	89be                	mv	s3,a5
   131d0:	a811                	j	131e4 <_vfprintf_r+0x18b2>
   131d2:	4601                	li	a2,0
   131d4:	4681                	li	a3,0
   131d6:	fffa8a13          	add	s4,s5,-1
   131da:	34d070ef          	jal	1ad26 <__eqdf2>
   131de:	66050263          	beqz	a0,13842 <_vfprintf_r+0x1f10>
   131e2:	8ad2                	mv	s5,s4
   131e4:	4662                	lw	a2,24(sp)
   131e6:	46f2                	lw	a3,28(sp)
   131e8:	854a                	mv	a0,s2
   131ea:	85ce                	mv	a1,s3
   131ec:	527070ef          	jal	1af12 <__muldf3>
   131f0:	892e                	mv	s2,a1
   131f2:	89aa                	mv	s3,a0
   131f4:	1c7080ef          	jal	1bbba <__fixdfsi>
   131f8:	8a2a                	mv	s4,a0
   131fa:	227080ef          	jal	1bc20 <__floatsidf>
   131fe:	86ae                	mv	a3,a1
   13200:	862a                	mv	a2,a0
   13202:	85ca                	mv	a1,s2
   13204:	854e                	mv	a0,s3
   13206:	22a080ef          	jal	1b430 <__subdf3>
   1320a:	01448733          	add	a4,s1,s4
   1320e:	00074683          	lbu	a3,0(a4)
   13212:	8822                	mv	a6,s0
   13214:	892a                	mv	s2,a0
   13216:	00d40023          	sb	a3,0(s0)
   1321a:	89ae                	mv	s3,a1
   1321c:	0405                	add	s0,s0,1
   1321e:	fb9a9ae3          	bne	s5,s9,131d2 <_vfprintf_r+0x18a0>
   13222:	0000a697          	auipc	a3,0xa
   13226:	4ce68693          	add	a3,a3,1230 # 1d6f0 <__SDATA_BEGIN__+0x18>
   1322a:	0006a303          	lw	t1,0(a3)
   1322e:	0046a383          	lw	t2,4(a3)
   13232:	4f06                	lw	t5,64(sp)
   13234:	4ed6                	lw	t4,84(sp)
   13236:	861a                	mv	a2,t1
   13238:	869e                	mv	a3,t2
   1323a:	ccfa                	sw	t5,88(sp)
   1323c:	c0f6                	sw	t4,64(sp)
   1323e:	cc42                	sw	a6,24(sp)
   13240:	84a2                	mv	s1,s0
   13242:	89e2                	mv	s3,s8
   13244:	845a                	mv	s0,s6
   13246:	8c6a                	mv	s8,s10
   13248:	8b2a                	mv	s6,a0
   1324a:	8d2e                	mv	s10,a1
   1324c:	347070ef          	jal	1ad92 <__gedf2>
   13250:	0000a797          	auipc	a5,0xa
   13254:	4a078793          	add	a5,a5,1184 # 1d6f0 <__SDATA_BEGIN__+0x18>
   13258:	5912                	lw	s2,36(sp)
   1325a:	0007a303          	lw	t1,0(a5)
   1325e:	0047a383          	lw	t2,4(a5)
   13262:	4862                	lw	a6,24(sp)
   13264:	4e86                	lw	t4,64(sp)
   13266:	4e26                	lw	t3,72(sp)
   13268:	4f66                	lw	t5,88(sp)
   1326a:	60a05e63          	blez	a0,13886 <_vfprintf_r+0x1f54>
   1326e:	5782                	lw	a5,32(sp)
   13270:	cd42                	sw	a6,152(sp)
   13272:	fff4c603          	lbu	a2,-1(s1) # 7fffffff <__BSS_END__+0x7ffe2263>
   13276:	00f7c583          	lbu	a1,15(a5)
   1327a:	86a6                	mv	a3,s1
   1327c:	00b61e63          	bne	a2,a1,13298 <_vfprintf_r+0x1966>
   13280:	03000513          	li	a0,48
   13284:	fea68fa3          	sb	a0,-1(a3)
   13288:	46ea                	lw	a3,152(sp)
   1328a:	fff68793          	add	a5,a3,-1
   1328e:	cd3e                	sw	a5,152(sp)
   13290:	fff6c603          	lbu	a2,-1(a3)
   13294:	feb608e3          	beq	a2,a1,13284 <_vfprintf_r+0x1952>
   13298:	00160593          	add	a1,a2,1
   1329c:	03900513          	li	a0,57
   132a0:	0ff5f593          	zext.b	a1,a1
   132a4:	02a60b63          	beq	a2,a0,132da <_vfprintf_r+0x19a8>
   132a8:	feb68fa3          	sb	a1,-1(a3)
   132ac:	8b26                	mv	s6,s1
   132ae:	5a76                	lw	s4,124(sp)
   132b0:	418b07b3          	sub	a5,s6,s8
   132b4:	06100693          	li	a3,97
   132b8:	fffa0313          	add	t1,s4,-1
   132bc:	cc3e                	sw	a5,24(sp)
   132be:	de9a                	sw	t1,124(sp)
   132c0:	07000713          	li	a4,112
   132c4:	00de0663          	beq	t3,a3,132d0 <_vfprintf_r+0x199e>
   132c8:	05000713          	li	a4,80
   132cc:	04100e13          	li	t3,65
   132d0:	4685                	li	a3,1
   132d2:	b91d                	j	12f08 <_vfprintf_r+0x15d6>
   132d4:	8b1a                	mv	s6,t1
   132d6:	468d                	li	a3,3
   132d8:	b3c1                	j	13098 <_vfprintf_r+0x1766>
   132da:	5782                	lw	a5,32(sp)
   132dc:	00a7c583          	lbu	a1,10(a5)
   132e0:	feb68fa3          	sb	a1,-1(a3)
   132e4:	b7e1                	j	132ac <_vfprintf_r+0x197a>
   132e6:	02d00713          	li	a4,45
   132ea:	06e10ba3          	sb	a4,119(sp)
   132ee:	02d00613          	li	a2,45
   132f2:	4301                	li	t1,0
   132f4:	0c85                	add	s9,s9,1
   132f6:	fd0fe06f          	j	11ac6 <_vfprintf_r+0x194>
   132fa:	0938                	add	a4,sp,152
   132fc:	4681                	li	a3,0
   132fe:	0150                	add	a2,sp,132
   13300:	4581                	li	a1,0
   13302:	854e                	mv	a0,s3
   13304:	d076                	sw	t4,32(sp)
   13306:	ca72                	sw	t3,20(sp)
   13308:	c87a                	sw	t5,16(sp)
   1330a:	72f050ef          	jal	19238 <_wcsrtombs_r>
   1330e:	577d                	li	a4,-1
   13310:	4f42                	lw	t5,16(sp)
   13312:	4e52                	lw	t3,20(sp)
   13314:	5e82                	lw	t4,32(sp)
   13316:	8b2a                	mv	s6,a0
   13318:	44e50163          	beq	a0,a4,1375a <_vfprintf_r+0x1e28>
   1331c:	c362                	sw	s8,132(sp)
   1331e:	bc15                	j	12d52 <_vfprintf_r+0x1420>
   13320:	47e2                	lw	a5,24(sp)
   13322:	8722                	mv	a4,s0
   13324:	5402                	lw	s0,32(sp)
   13326:	97e2                	add	a5,a5,s8
   13328:	cee6                	sw	s9,92(sp)
   1332a:	8626                	mv	a2,s1
   1332c:	c2be                	sw	a5,68(sp)
   1332e:	5492                	lw	s1,36(sp)
   13330:	c4ca                	sw	s2,72(sp)
   13332:	d262                	sw	s8,36(sp)
   13334:	cafa                	sw	t5,84(sp)
   13336:	ccf6                	sw	t4,88(sp)
   13338:	8c5a                	mv	s8,s6
   1333a:	4cc6                	lw	s9,80(sp)
   1333c:	4a22                	lw	s4,8(sp)
   1333e:	5b72                	lw	s6,60(sp)
   13340:	469d                	li	a3,7
   13342:	4d41                	li	s10,16
   13344:	00009a97          	auipc	s5,0x9
   13348:	1cca8a93          	add	s5,s5,460 # 1c510 <zeroes.0>
   1334c:	06805563          	blez	s0,133b6 <_vfprintf_r+0x1a84>
   13350:	0e905f63          	blez	s1,1344e <_vfprintf_r+0x1b1c>
   13354:	14fd                	add	s1,s1,-1
   13356:	47b6                	lw	a5,76(sp)
   13358:	9666                	add	a2,a2,s9
   1335a:	01972223          	sw	s9,4(a4)
   1335e:	c31c                	sw	a5,0(a4)
   13360:	579a                	lw	a5,164(sp)
   13362:	d532                	sw	a2,168(sp)
   13364:	0721                	add	a4,a4,8
   13366:	0785                	add	a5,a5,1
   13368:	d33e                	sw	a5,164(sp)
   1336a:	0ef6c563          	blt	a3,a5,13454 <_vfprintf_r+0x1b22>
   1336e:	4796                	lw	a5,68(sp)
   13370:	000b4583          	lbu	a1,0(s6)
   13374:	41878933          	sub	s2,a5,s8
   13378:	0125d363          	bge	a1,s2,1337e <_vfprintf_r+0x1a4c>
   1337c:	892e                	mv	s2,a1
   1337e:	03205063          	blez	s2,1339e <_vfprintf_r+0x1a6c>
   13382:	559a                	lw	a1,164(sp)
   13384:	964a                	add	a2,a2,s2
   13386:	01872023          	sw	s8,0(a4)
   1338a:	0585                	add	a1,a1,1
   1338c:	01272223          	sw	s2,4(a4)
   13390:	d532                	sw	a2,168(sp)
   13392:	d32e                	sw	a1,164(sp)
   13394:	0cb6cb63          	blt	a3,a1,1346a <_vfprintf_r+0x1b38>
   13398:	000b4583          	lbu	a1,0(s6)
   1339c:	0721                	add	a4,a4,8
   1339e:	fff94513          	not	a0,s2
   133a2:	857d                	sra	a0,a0,0x1f
   133a4:	00a977b3          	and	a5,s2,a0
   133a8:	40f58933          	sub	s2,a1,a5
   133ac:	03204863          	bgtz	s2,133dc <_vfprintf_r+0x1aaa>
   133b0:	9c2e                	add	s8,s8,a1
   133b2:	f8804fe3          	bgtz	s0,13350 <_vfprintf_r+0x1a1e>
   133b6:	f8904fe3          	bgtz	s1,13354 <_vfprintf_r+0x1a22>
   133ba:	47e2                	lw	a5,24(sp)
   133bc:	de5a                	sw	s6,60(sp)
   133be:	8b62                	mv	s6,s8
   133c0:	5c12                	lw	s8,36(sp)
   133c2:	843a                	mv	s0,a4
   133c4:	4926                	lw	s2,72(sp)
   133c6:	00fc0733          	add	a4,s8,a5
   133ca:	4f56                	lw	t5,84(sp)
   133cc:	4ee6                	lw	t4,88(sp)
   133ce:	4cf6                	lw	s9,92(sp)
   133d0:	84b2                	mv	s1,a2
   133d2:	a5677563          	bgeu	a4,s6,1261c <_vfprintf_r+0xcea>
   133d6:	8b3a                	mv	s6,a4
   133d8:	a44ff06f          	j	1261c <_vfprintf_r+0xcea>
   133dc:	559a                	lw	a1,164(sp)
   133de:	00009e97          	auipc	t4,0x9
   133e2:	132e8e93          	add	t4,t4,306 # 1c510 <zeroes.0>
   133e6:	052d5563          	bge	s10,s2,13430 <_vfprintf_r+0x1afe>
   133ea:	d022                	sw	s0,32(sp)
   133ec:	844a                	mv	s0,s2
   133ee:	8956                	mv	s2,s5
   133f0:	a021                	j	133f8 <_vfprintf_r+0x1ac6>
   133f2:	1441                	add	s0,s0,-16
   133f4:	028d5b63          	bge	s10,s0,1342a <_vfprintf_r+0x1af8>
   133f8:	0641                	add	a2,a2,16
   133fa:	0585                	add	a1,a1,1
   133fc:	01572023          	sw	s5,0(a4)
   13400:	01a72223          	sw	s10,4(a4)
   13404:	d532                	sw	a2,168(sp)
   13406:	d32e                	sw	a1,164(sp)
   13408:	0721                	add	a4,a4,8
   1340a:	feb6d4e3          	bge	a3,a1,133f2 <_vfprintf_r+0x1ac0>
   1340e:	1110                	add	a2,sp,160
   13410:	85d2                	mv	a1,s4
   13412:	854e                	mv	a0,s3
   13414:	2579                	jal	13aa2 <__sprint_r>
   13416:	c119                	beqz	a0,1341c <_vfprintf_r+0x1aea>
   13418:	863fe06f          	j	11c7a <_vfprintf_r+0x348>
   1341c:	1441                	add	s0,s0,-16
   1341e:	562a                	lw	a2,168(sp)
   13420:	559a                	lw	a1,164(sp)
   13422:	1178                	add	a4,sp,172
   13424:	469d                	li	a3,7
   13426:	fc8d49e3          	blt	s10,s0,133f8 <_vfprintf_r+0x1ac6>
   1342a:	8eca                	mv	t4,s2
   1342c:	8922                	mv	s2,s0
   1342e:	5402                	lw	s0,32(sp)
   13430:	964a                	add	a2,a2,s2
   13432:	0585                	add	a1,a1,1
   13434:	01d72023          	sw	t4,0(a4)
   13438:	01272223          	sw	s2,4(a4)
   1343c:	d532                	sw	a2,168(sp)
   1343e:	d32e                	sw	a1,164(sp)
   13440:	12b6c363          	blt	a3,a1,13566 <_vfprintf_r+0x1c34>
   13444:	000b4583          	lbu	a1,0(s6)
   13448:	0721                	add	a4,a4,8
   1344a:	9c2e                	add	s8,s8,a1
   1344c:	b79d                	j	133b2 <_vfprintf_r+0x1a80>
   1344e:	1b7d                	add	s6,s6,-1
   13450:	147d                	add	s0,s0,-1
   13452:	b711                	j	13356 <_vfprintf_r+0x1a24>
   13454:	1110                	add	a2,sp,160
   13456:	85d2                	mv	a1,s4
   13458:	854e                	mv	a0,s3
   1345a:	25a1                	jal	13aa2 <__sprint_r>
   1345c:	c119                	beqz	a0,13462 <_vfprintf_r+0x1b30>
   1345e:	81dfe06f          	j	11c7a <_vfprintf_r+0x348>
   13462:	562a                	lw	a2,168(sp)
   13464:	1178                	add	a4,sp,172
   13466:	469d                	li	a3,7
   13468:	b719                	j	1336e <_vfprintf_r+0x1a3c>
   1346a:	1110                	add	a2,sp,160
   1346c:	85d2                	mv	a1,s4
   1346e:	854e                	mv	a0,s3
   13470:	2d0d                	jal	13aa2 <__sprint_r>
   13472:	c119                	beqz	a0,13478 <_vfprintf_r+0x1b46>
   13474:	807fe06f          	j	11c7a <_vfprintf_r+0x348>
   13478:	000b4583          	lbu	a1,0(s6)
   1347c:	562a                	lw	a2,168(sp)
   1347e:	1178                	add	a4,sp,172
   13480:	469d                	li	a3,7
   13482:	bf31                	j	1339e <_vfprintf_r+0x1a6c>
   13484:	47e2                	lw	a5,24(sp)
   13486:	1cfa4563          	blt	s4,a5,13650 <_vfprintf_r+0x1d1e>
   1348a:	001f7713          	and	a4,t5,1
   1348e:	8b52                	mv	s6,s4
   13490:	c701                	beqz	a4,13498 <_vfprintf_r+0x1b66>
   13492:	57c2                	lw	a5,48(sp)
   13494:	00fa0b33          	add	s6,s4,a5
   13498:	400f7f13          	and	t5,t5,1024
   1349c:	000f0463          	beqz	t5,134a4 <_vfprintf_r+0x1b72>
   134a0:	31404363          	bgtz	s4,137a6 <_vfprintf_r+0x1e74>
   134a4:	fffb4813          	not	a6,s6
   134a8:	41f85813          	sra	a6,a6,0x1f
   134ac:	010b7cb3          	and	s9,s6,a6
   134b0:	06700e13          	li	t3,103
   134b4:	8f56                	mv	t5,s5
   134b6:	d202                	sw	zero,36(sp)
   134b8:	d002                	sw	zero,32(sp)
   134ba:	bcc5                	j	12faa <_vfprintf_r+0x1678>
   134bc:	02d00793          	li	a5,45
   134c0:	06f10ba3          	sb	a5,119(sp)
   134c4:	02d00613          	li	a2,45
   134c8:	8affe06f          	j	11d76 <_vfprintf_r+0x444>
   134cc:	47c6                	lw	a5,80(sp)
   134ce:	45b6                	lw	a1,76(sp)
   134d0:	c2fa                	sw	t5,68(sp)
   134d2:	8e9d                	sub	a3,a3,a5
   134d4:	863e                	mv	a2,a5
   134d6:	8536                	mv	a0,a3
   134d8:	de1a                	sw	t1,60(sp)
   134da:	d276                	sw	t4,36(sp)
   134dc:	d072                	sw	t3,32(sp)
   134de:	cc3a                	sw	a4,24(sp)
   134e0:	c836                	sw	a3,16(sp)
   134e2:	1a4020ef          	jal	15686 <strncpy>
   134e6:	009c37b3          	sltu	a5,s8,s1
   134ea:	4615                	li	a2,5
   134ec:	97e2                	add	a5,a5,s8
   134ee:	02c7f7b3          	remu	a5,a5,a2
   134f2:	4762                	lw	a4,24(sp)
   134f4:	ccccd537          	lui	a0,0xccccd
   134f8:	ccccd837          	lui	a6,0xccccd
   134fc:	00174603          	lbu	a2,1(a4)
   13500:	ccd50513          	add	a0,a0,-819 # cccccccd <__BSS_END__+0xcccaef31>
   13504:	ccc80813          	add	a6,a6,-820 # cccccccc <__BSS_END__+0xcccaef30>
   13508:	00c03633          	snez	a2,a2
   1350c:	9732                	add	a4,a4,a2
   1350e:	46c2                	lw	a3,16(sp)
   13510:	5e02                	lw	t3,32(sp)
   13512:	5e92                	lw	t4,36(sp)
   13514:	5372                	lw	t1,60(sp)
   13516:	4f16                	lw	t5,68(sp)
   13518:	4581                	li	a1,0
   1351a:	4895                	li	a7,5
   1351c:	40f487b3          	sub	a5,s1,a5
   13520:	00f4b633          	sltu	a2,s1,a5
   13524:	40cc8633          	sub	a2,s9,a2
   13528:	02a60633          	mul	a2,a2,a0
   1352c:	03078833          	mul	a6,a5,a6
   13530:	02a7bfb3          	mulhu	t6,a5,a0
   13534:	9642                	add	a2,a2,a6
   13536:	02a78533          	mul	a0,a5,a0
   1353a:	967e                	add	a2,a2,t6
   1353c:	01f61793          	sll	a5,a2,0x1f
   13540:	8205                	srl	a2,a2,0x1
   13542:	8105                	srl	a0,a0,0x1
   13544:	8fc9                	or	a5,a5,a0
   13546:	dd8ff06f          	j	12b1e <_vfprintf_r+0x11ec>
   1354a:	07714603          	lbu	a2,119(sp)
   1354e:	ca56                	sw	s5,20(sp)
   13550:	d202                	sw	zero,36(sp)
   13552:	d002                	sw	zero,32(sp)
   13554:	c802                	sw	zero,16(sp)
   13556:	4c81                	li	s9,0
   13558:	4301                	li	t1,0
   1355a:	4a01                	li	s4,0
   1355c:	e219                	bnez	a2,13562 <_vfprintf_r+0x1c30>
   1355e:	d68fe06f          	j	11ac6 <_vfprintf_r+0x194>
   13562:	843fe06f          	j	11da4 <_vfprintf_r+0x472>
   13566:	1110                	add	a2,sp,160
   13568:	85d2                	mv	a1,s4
   1356a:	854e                	mv	a0,s3
   1356c:	2b1d                	jal	13aa2 <__sprint_r>
   1356e:	c119                	beqz	a0,13574 <_vfprintf_r+0x1c42>
   13570:	f0afe06f          	j	11c7a <_vfprintf_r+0x348>
   13574:	000b4583          	lbu	a1,0(s6)
   13578:	562a                	lw	a2,168(sp)
   1357a:	1178                	add	a4,sp,172
   1357c:	469d                	li	a3,7
   1357e:	9c2e                	add	s8,s8,a1
   13580:	bd0d                	j	133b2 <_vfprintf_r+0x1a80>
   13582:	45a2                	lw	a1,8(sp)
   13584:	1110                	add	a2,sp,160
   13586:	854e                	mv	a0,s3
   13588:	c4f6                	sw	t4,72(sp)
   1358a:	c2fa                	sw	t5,68(sp)
   1358c:	2b19                	jal	13aa2 <__sprint_r>
   1358e:	c119                	beqz	a0,13594 <_vfprintf_r+0x1c62>
   13590:	eeafe06f          	j	11c7a <_vfprintf_r+0x348>
   13594:	54aa                	lw	s1,168(sp)
   13596:	4ea6                	lw	t4,72(sp)
   13598:	4f16                	lw	t5,68(sp)
   1359a:	1160                	add	s0,sp,172
   1359c:	862ff06f          	j	125fe <_vfprintf_r+0xccc>
   135a0:	4525                	li	a0,9
   135a2:	d6956e63          	bltu	a0,s1,12b1e <_vfprintf_r+0x11ec>
   135a6:	de0ff06f          	j	12b86 <_vfprintf_r+0x1254>
   135aa:	00650733          	add	a4,a0,t1
   135ae:	04700813          	li	a6,71
   135b2:	be0d                	j	130e4 <_vfprintf_r+0x17b2>
   135b4:	5a76                	lw	s4,124(sp)
   135b6:	8b3a                	mv	s6,a4
   135b8:	be8d                	j	1312a <_vfprintf_r+0x17f8>
   135ba:	45a2                	lw	a1,8(sp)
   135bc:	1110                	add	a2,sp,160
   135be:	854e                	mv	a0,s3
   135c0:	d276                	sw	t4,36(sp)
   135c2:	d07a                	sw	t5,32(sp)
   135c4:	29f9                	jal	13aa2 <__sprint_r>
   135c6:	c119                	beqz	a0,135cc <_vfprintf_r+0x1c9a>
   135c8:	eb2fe06f          	j	11c7a <_vfprintf_r+0x348>
   135cc:	5d76                	lw	s10,124(sp)
   135ce:	47e2                	lw	a5,24(sp)
   135d0:	54aa                	lw	s1,168(sp)
   135d2:	5e92                	lw	t4,36(sp)
   135d4:	5f02                	lw	t5,32(sp)
   135d6:	1160                	add	s0,sp,172
   135d8:	41a78d33          	sub	s10,a5,s10
   135dc:	886ff06f          	j	12662 <_vfprintf_r+0xd30>
   135e0:	5622                	lw	a2,40(sp)
   135e2:	85a6                	mv	a1,s1
   135e4:	4681                	li	a3,0
   135e6:	8532                	mv	a0,a2
   135e8:	4601                	li	a2,0
   135ea:	ccba                	sw	a4,88(sp)
   135ec:	ca9a                	sw	t1,84(sp)
   135ee:	c4f6                	sw	t4,72(sp)
   135f0:	d272                	sw	t3,36(sp)
   135f2:	d07a                	sw	t5,32(sp)
   135f4:	cc42                	sw	a6,24(sp)
   135f6:	730070ef          	jal	1ad26 <__eqdf2>
   135fa:	4862                	lw	a6,24(sp)
   135fc:	5f02                	lw	t5,32(sp)
   135fe:	5e12                	lw	t3,36(sp)
   13600:	4ea6                	lw	t4,72(sp)
   13602:	4356                	lw	t1,84(sp)
   13604:	4766                	lw	a4,88(sp)
   13606:	26051a63          	bnez	a0,1387a <_vfprintf_r+0x1f48>
   1360a:	5a76                	lw	s4,124(sp)
   1360c:	9752                	add	a4,a4,s4
   1360e:	418707b3          	sub	a5,a4,s8
   13612:	cc3e                	sw	a5,24(sp)
   13614:	001f7713          	and	a4,t5,1
   13618:	00676733          	or	a4,a4,t1
   1361c:	29405a63          	blez	s4,138b0 <_vfprintf_r+0x1f7e>
   13620:	1e071063          	bnez	a4,13800 <_vfprintf_r+0x1ece>
   13624:	8b52                	mv	s6,s4
   13626:	06600e13          	li	t3,102
   1362a:	400f7f13          	and	t5,t5,1024
   1362e:	160f1e63          	bnez	t5,137aa <_vfprintf_r+0x1e78>
   13632:	fffb4813          	not	a6,s6
   13636:	41f85813          	sra	a6,a6,0x1f
   1363a:	010b7cb3          	and	s9,s6,a6
   1363e:	bd9d                	j	134b4 <_vfprintf_r+0x1b82>
   13640:	8d7a                	mv	s10,t5
   13642:	b8dfe06f          	j	121ce <_vfprintf_r+0x89c>
   13646:	c802                	sw	zero,16(sp)
   13648:	0ec10c13          	add	s8,sp,236
   1364c:	f30ff06f          	j	12d7c <_vfprintf_r+0x144a>
   13650:	47e2                	lw	a5,24(sp)
   13652:	5742                	lw	a4,48(sp)
   13654:	06700e13          	li	t3,103
   13658:	00e78b33          	add	s6,a5,a4
   1365c:	fd4047e3          	bgtz	s4,1362a <_vfprintf_r+0x1cf8>
   13660:	414b06b3          	sub	a3,s6,s4
   13664:	00168b13          	add	s6,a3,1
   13668:	fffb4813          	not	a6,s6
   1366c:	41f85813          	sra	a6,a6,0x1f
   13670:	010b7cb3          	and	s9,s6,a6
   13674:	b581                	j	134b4 <_vfprintf_r+0x1b82>
   13676:	47a2                	lw	a5,8(sp)
   13678:	53fc                	lw	a5,100(a5)
   1367a:	8b85                	and	a5,a5,1
   1367c:	eb99                	bnez	a5,13692 <_vfprintf_r+0x1d60>
   1367e:	47a2                	lw	a5,8(sp)
   13680:	00c7d783          	lhu	a5,12(a5)
   13684:	2007f793          	and	a5,a5,512
   13688:	e789                	bnez	a5,13692 <_vfprintf_r+0x1d60>
   1368a:	47a2                	lw	a5,8(sp)
   1368c:	4fa8                	lw	a0,88(a5)
   1368e:	fd0fd0ef          	jal	10e5e <__retarget_lock_release_recursive>
   13692:	57fd                	li	a5,-1
   13694:	c63e                	sw	a5,12(sp)
   13696:	e34fe06f          	j	11cca <_vfprintf_r+0x398>
   1369a:	56c1                	li	a3,-16
   1369c:	40c00d33          	neg	s10,a2
   136a0:	00009297          	auipc	t0,0x9
   136a4:	e7028293          	add	t0,t0,-400 # 1c510 <zeroes.0>
   136a8:	04d65563          	bge	a2,a3,136f2 <_vfprintf_r+0x1dc0>
   136ac:	d04a                	sw	s2,32(sp)
   136ae:	44c1                	li	s1,16
   136b0:	4a9d                	li	s5,7
   136b2:	8a7a                	mv	s4,t5
   136b4:	8b76                	mv	s6,t4
   136b6:	8916                	mv	s2,t0
   136b8:	a021                	j	136c0 <_vfprintf_r+0x1d8e>
   136ba:	1d41                	add	s10,s10,-16
   136bc:	03a4d763          	bge	s1,s10,136ea <_vfprintf_r+0x1db8>
   136c0:	05c1                	add	a1,a1,16
   136c2:	0705                	add	a4,a4,1
   136c4:	01242023          	sw	s2,0(s0)
   136c8:	c044                	sw	s1,4(s0)
   136ca:	d52e                	sw	a1,168(sp)
   136cc:	d33a                	sw	a4,164(sp)
   136ce:	0421                	add	s0,s0,8
   136d0:	feead5e3          	bge	s5,a4,136ba <_vfprintf_r+0x1d88>
   136d4:	45a2                	lw	a1,8(sp)
   136d6:	1110                	add	a2,sp,160
   136d8:	854e                	mv	a0,s3
   136da:	26e1                	jal	13aa2 <__sprint_r>
   136dc:	c119                	beqz	a0,136e2 <_vfprintf_r+0x1db0>
   136de:	d9cfe06f          	j	11c7a <_vfprintf_r+0x348>
   136e2:	55aa                	lw	a1,168(sp)
   136e4:	571a                	lw	a4,164(sp)
   136e6:	1160                	add	s0,sp,172
   136e8:	bfc9                	j	136ba <_vfprintf_r+0x1d88>
   136ea:	82ca                	mv	t0,s2
   136ec:	5902                	lw	s2,32(sp)
   136ee:	8f52                	mv	t5,s4
   136f0:	8eda                	mv	t4,s6
   136f2:	95ea                	add	a1,a1,s10
   136f4:	0705                	add	a4,a4,1
   136f6:	00542023          	sw	t0,0(s0)
   136fa:	01a42223          	sw	s10,4(s0)
   136fe:	d52e                	sw	a1,168(sp)
   13700:	d33a                	sw	a4,164(sp)
   13702:	469d                	li	a3,7
   13704:	94e6d163          	bge	a3,a4,12846 <_vfprintf_r+0xf14>
   13708:	45a2                	lw	a1,8(sp)
   1370a:	1110                	add	a2,sp,160
   1370c:	854e                	mv	a0,s3
   1370e:	d276                	sw	t4,36(sp)
   13710:	d07a                	sw	t5,32(sp)
   13712:	2e41                	jal	13aa2 <__sprint_r>
   13714:	c119                	beqz	a0,1371a <_vfprintf_r+0x1de8>
   13716:	d64fe06f          	j	11c7a <_vfprintf_r+0x348>
   1371a:	55aa                	lw	a1,168(sp)
   1371c:	571a                	lw	a4,164(sp)
   1371e:	5e92                	lw	t4,36(sp)
   13720:	5f02                	lw	t5,32(sp)
   13722:	1160                	add	s0,sp,172
   13724:	f66fe06f          	j	11e8a <_vfprintf_r+0x558>
   13728:	08a10713          	add	a4,sp,138
   1372c:	e699                	bnez	a3,1373a <_vfprintf_r+0x1e08>
   1372e:	03000713          	li	a4,48
   13732:	08e10523          	sb	a4,138(sp)
   13736:	08b10713          	add	a4,sp,139
   1373a:	0a9c                	add	a5,sp,336
   1373c:	40f706b3          	sub	a3,a4,a5
   13740:	03030313          	add	t1,t1,48
   13744:	0c968793          	add	a5,a3,201
   13748:	00670023          	sb	t1,0(a4)
   1374c:	c0be                	sw	a5,64(sp)
   1374e:	831ff06f          	j	12f7e <_vfprintf_r+0x164c>
   13752:	c802                	sw	zero,16(sp)
   13754:	4319                	li	t1,6
   13756:	cceff06f          	j	12c24 <_vfprintf_r+0x12f2>
   1375a:	47a2                	lw	a5,8(sp)
   1375c:	4f01                	li	t5,0
   1375e:	00c79783          	lh	a5,12(a5)
   13762:	0407e793          	or	a5,a5,64
   13766:	4722                	lw	a4,8(sp)
   13768:	00f71623          	sh	a5,12(a4)
   1376c:	d10fe06f          	j	11c7c <_vfprintf_r+0x34a>
   13770:	001f7713          	and	a4,t5,1
   13774:	80070ee3          	beqz	a4,12f90 <_vfprintf_r+0x165e>
   13778:	815ff06f          	j	12f8c <_vfprintf_r+0x165a>
   1377c:	57b2                	lw	a5,44(sp)
   1377e:	0e07c763          	bltz	a5,1386c <_vfprintf_r+0x1f3a>
   13782:	07714603          	lbu	a2,119(sp)
   13786:	04700713          	li	a4,71
   1378a:	00009c17          	auipc	s8,0x9
   1378e:	8b2c0c13          	add	s8,s8,-1870 # 1c03c <__clzsi2+0x96>
   13792:	01c75463          	bge	a4,t3,1379a <_vfprintf_r+0x1e68>
   13796:	df8fe06f          	j	11d8e <_vfprintf_r+0x45c>
   1379a:	00009c17          	auipc	s8,0x9
   1379e:	89ec0c13          	add	s8,s8,-1890 # 1c038 <__clzsi2+0x92>
   137a2:	decfe06f          	j	11d8e <_vfprintf_r+0x45c>
   137a6:	06700e13          	li	t3,103
   137aa:	57f2                	lw	a5,60(sp)
   137ac:	0ff00613          	li	a2,255
   137b0:	0007c703          	lbu	a4,0(a5)
   137b4:	16c70763          	beq	a4,a2,13922 <_vfprintf_r+0x1ff0>
   137b8:	4581                	li	a1,0
   137ba:	4681                	li	a3,0
   137bc:	01475b63          	bge	a4,s4,137d2 <_vfprintf_r+0x1ea0>
   137c0:	40ea0a33          	sub	s4,s4,a4
   137c4:	0017c703          	lbu	a4,1(a5)
   137c8:	cb05                	beqz	a4,137f8 <_vfprintf_r+0x1ec6>
   137ca:	0685                	add	a3,a3,1
   137cc:	0785                	add	a5,a5,1
   137ce:	fec717e3          	bne	a4,a2,137bc <_vfprintf_r+0x1e8a>
   137d2:	de3e                	sw	a5,60(sp)
   137d4:	d036                	sw	a3,32(sp)
   137d6:	d22e                	sw	a1,36(sp)
   137d8:	5782                	lw	a5,32(sp)
   137da:	5712                	lw	a4,36(sp)
   137dc:	8f56                	mv	t5,s5
   137de:	973e                	add	a4,a4,a5
   137e0:	47c6                	lw	a5,80(sp)
   137e2:	02f70733          	mul	a4,a4,a5
   137e6:	9b3a                	add	s6,s6,a4
   137e8:	fffb4813          	not	a6,s6
   137ec:	41f85813          	sra	a6,a6,0x1f
   137f0:	010b7cb3          	and	s9,s6,a6
   137f4:	fb6ff06f          	j	12faa <_vfprintf_r+0x1678>
   137f8:	0007c703          	lbu	a4,0(a5)
   137fc:	0585                	add	a1,a1,1
   137fe:	bfc1                	j	137ce <_vfprintf_r+0x1e9c>
   13800:	57c2                	lw	a5,48(sp)
   13802:	06600e13          	li	t3,102
   13806:	00f306b3          	add	a3,t1,a5
   1380a:	01468b33          	add	s6,a3,s4
   1380e:	bd31                	j	1362a <_vfprintf_r+0x1cf8>
   13810:	8322                	mv	t1,s0
   13812:	4942                	lw	s2,16(sp)
   13814:	8456                	mv	s0,s5
   13816:	4ed2                	lw	t4,20(sp)
   13818:	8ada                	mv	s5,s6
   1381a:	8f52                	mv	t5,s4
   1381c:	8e6a                	mv	t3,s10
   1381e:	8b1a                	mv	s6,t1
   13820:	d32ff06f          	j	12d52 <_vfprintf_r+0x1420>
   13824:	07714603          	lbu	a2,119(sp)
   13828:	ca56                	sw	s5,20(sp)
   1382a:	d202                	sw	zero,36(sp)
   1382c:	d002                	sw	zero,32(sp)
   1382e:	8c9a                	mv	s9,t1
   13830:	8b1a                	mv	s6,t1
   13832:	07300e13          	li	t3,115
   13836:	4301                	li	t1,0
   13838:	e219                	bnez	a2,1383e <_vfprintf_r+0x1f0c>
   1383a:	a8cfe06f          	j	11ac6 <_vfprintf_r+0x194>
   1383e:	d66fe06f          	j	11da4 <_vfprintf_r+0x472>
   13842:	84a2                	mv	s1,s0
   13844:	845a                	mv	s0,s6
   13846:	001a8b13          	add	s6,s5,1
   1384a:	89e2                	mv	s3,s8
   1384c:	5912                	lw	s2,36(sp)
   1384e:	4f06                	lw	t5,64(sp)
   13850:	4e26                	lw	t3,72(sp)
   13852:	4ed6                	lw	t4,84(sp)
   13854:	8c6a                	mv	s8,s10
   13856:	9b26                	add	s6,s6,s1
   13858:	03000693          	li	a3,48
   1385c:	a40ac8e3          	bltz	s5,132ac <_vfprintf_r+0x197a>
   13860:	0485                	add	s1,s1,1
   13862:	fed48fa3          	sb	a3,-1(s1)
   13866:	ff649de3          	bne	s1,s6,13860 <_vfprintf_r+0x1f2e>
   1386a:	b491                	j	132ae <_vfprintf_r+0x197c>
   1386c:	02d00793          	li	a5,45
   13870:	06f10ba3          	sb	a5,119(sp)
   13874:	02d00613          	li	a2,45
   13878:	b739                	j	13786 <_vfprintf_r+0x1e54>
   1387a:	4685                	li	a3,1
   1387c:	416686b3          	sub	a3,a3,s6
   13880:	deb6                	sw	a3,124(sp)
   13882:	861ff06f          	j	130e2 <_vfprintf_r+0x17b0>
   13886:	855a                	mv	a0,s6
   13888:	85ea                	mv	a1,s10
   1388a:	861a                	mv	a2,t1
   1388c:	869e                	mv	a3,t2
   1388e:	c4c2                	sw	a6,72(sp)
   13890:	c0f6                	sw	t4,64(sp)
   13892:	d272                	sw	t3,36(sp)
   13894:	cc7a                	sw	t5,24(sp)
   13896:	490070ef          	jal	1ad26 <__eqdf2>
   1389a:	4f62                	lw	t5,24(sp)
   1389c:	5e12                	lw	t3,36(sp)
   1389e:	4e86                	lw	t4,64(sp)
   138a0:	4826                	lw	a6,72(sp)
   138a2:	a00515e3          	bnez	a0,132ac <_vfprintf_r+0x197a>
   138a6:	001a7693          	and	a3,s4,1
   138aa:	a00681e3          	beqz	a3,132ac <_vfprintf_r+0x197a>
   138ae:	b2c1                	j	1326e <_vfprintf_r+0x193c>
   138b0:	e711                	bnez	a4,138bc <_vfprintf_r+0x1f8a>
   138b2:	4c85                	li	s9,1
   138b4:	06600e13          	li	t3,102
   138b8:	4b05                	li	s6,1
   138ba:	beed                	j	134b4 <_vfprintf_r+0x1b82>
   138bc:	57c2                	lw	a5,48(sp)
   138be:	06600e13          	li	t3,102
   138c2:	00178693          	add	a3,a5,1
   138c6:	00668b33          	add	s6,a3,t1
   138ca:	fffb4813          	not	a6,s6
   138ce:	41f85813          	sra	a6,a6,0x1f
   138d2:	010b7cb3          	and	s9,s6,a6
   138d6:	bef9                	j	134b4 <_vfprintf_r+0x1b82>
   138d8:	47d2                	lw	a5,20(sp)
   138da:	0007ab03          	lw	s6,0(a5)
   138de:	0791                	add	a5,a5,4
   138e0:	000b5363          	bgez	s6,138e6 <_vfprintf_r+0x1fb4>
   138e4:	5b7d                	li	s6,-1
   138e6:	00194e03          	lbu	t3,1(s2)
   138ea:	ca3e                	sw	a5,20(sp)
   138ec:	8936                	mv	s2,a3
   138ee:	96efe06f          	j	11a5c <_vfprintf_r+0x12a>
   138f2:	4789                	li	a5,2
   138f4:	c0be                	sw	a5,64(sp)
   138f6:	e88ff06f          	j	12f7e <_vfprintf_r+0x164c>
   138fa:	4722                	lw	a4,8(sp)
   138fc:	00c71783          	lh	a5,12(a4)
   13900:	0407e793          	or	a5,a5,64
   13904:	00f71623          	sh	a5,12(a4)
   13908:	b86fe06f          	j	11c8e <_vfprintf_r+0x35c>
   1390c:	04500813          	li	a6,69
   13910:	fd4ff06f          	j	130e4 <_vfprintf_r+0x17b2>
   13914:	47a2                	lw	a5,8(sp)
   13916:	4f42                	lw	t5,16(sp)
   13918:	00c79783          	lh	a5,12(a5)
   1391c:	0407e793          	or	a5,a5,64
   13920:	b599                	j	13766 <_vfprintf_r+0x1e34>
   13922:	d202                	sw	zero,36(sp)
   13924:	d002                	sw	zero,32(sp)
   13926:	bd4d                	j	137d8 <_vfprintf_r+0x1ea6>

00013928 <vfprintf>:
   13928:	86b2                	mv	a3,a2
   1392a:	862e                	mv	a2,a1
   1392c:	85aa                	mv	a1,a0
   1392e:	f681a503          	lw	a0,-152(gp) # 1d778 <_impure_ptr>
   13932:	800fe06f          	j	11932 <_vfprintf_r>

00013936 <__sbprintf>:
   13936:	b7010113          	add	sp,sp,-1168
   1393a:	00c59783          	lh	a5,12(a1)
   1393e:	00e5d703          	lhu	a4,14(a1)
   13942:	48812423          	sw	s0,1160(sp)
   13946:	842e                	mv	s0,a1
   13948:	65c1                	lui	a1,0x10
   1394a:	15f5                	add	a1,a1,-3 # fffd <exit-0x97>
   1394c:	06442303          	lw	t1,100(s0)
   13950:	01c42883          	lw	a7,28(s0)
   13954:	02442803          	lw	a6,36(s0)
   13958:	0742                	sll	a4,a4,0x10
   1395a:	8fed                	and	a5,a5,a1
   1395c:	8fd9                	or	a5,a5,a4
   1395e:	40000593          	li	a1,1024
   13962:	49212023          	sw	s2,1152(sp)
   13966:	ca3e                	sw	a5,20(sp)
   13968:	892a                	mv	s2,a0
   1396a:	189c                	add	a5,sp,112
   1396c:	1088                	add	a0,sp,96
   1396e:	48112623          	sw	ra,1164(sp)
   13972:	48912223          	sw	s1,1156(sp)
   13976:	47312e23          	sw	s3,1148(sp)
   1397a:	84b2                	mv	s1,a2
   1397c:	89b6                	mv	s3,a3
   1397e:	d69a                	sw	t1,108(sp)
   13980:	d246                	sw	a7,36(sp)
   13982:	d642                	sw	a6,44(sp)
   13984:	c43e                	sw	a5,8(sp)
   13986:	cc3e                	sw	a5,24(sp)
   13988:	c82e                	sw	a1,16(sp)
   1398a:	ce2e                	sw	a1,28(sp)
   1398c:	d002                	sw	zero,32(sp)
   1398e:	cbcfd0ef          	jal	10e4a <__retarget_lock_init_recursive>
   13992:	8626                	mv	a2,s1
   13994:	86ce                	mv	a3,s3
   13996:	002c                	add	a1,sp,8
   13998:	854a                	mv	a0,s2
   1399a:	f99fd0ef          	jal	11932 <_vfprintf_r>
   1399e:	84aa                	mv	s1,a0
   139a0:	02055e63          	bgez	a0,139dc <__sbprintf+0xa6>
   139a4:	01415783          	lhu	a5,20(sp)
   139a8:	0407f793          	and	a5,a5,64
   139ac:	c799                	beqz	a5,139ba <__sbprintf+0x84>
   139ae:	00c45783          	lhu	a5,12(s0)
   139b2:	0407e793          	or	a5,a5,64
   139b6:	00f41623          	sh	a5,12(s0)
   139ba:	5506                	lw	a0,96(sp)
   139bc:	c92fd0ef          	jal	10e4e <__retarget_lock_close_recursive>
   139c0:	48c12083          	lw	ra,1164(sp)
   139c4:	48812403          	lw	s0,1160(sp)
   139c8:	48012903          	lw	s2,1152(sp)
   139cc:	47c12983          	lw	s3,1148(sp)
   139d0:	8526                	mv	a0,s1
   139d2:	48412483          	lw	s1,1156(sp)
   139d6:	49010113          	add	sp,sp,1168
   139da:	8082                	ret
   139dc:	002c                	add	a1,sp,8
   139de:	854a                	mv	a0,s2
   139e0:	4f6010ef          	jal	14ed6 <_fflush_r>
   139e4:	d161                	beqz	a0,139a4 <__sbprintf+0x6e>
   139e6:	54fd                	li	s1,-1
   139e8:	bf75                	j	139a4 <__sbprintf+0x6e>

000139ea <__sprint_r.part.0>:
   139ea:	51fc                	lw	a5,100(a1)
   139ec:	7179                	add	sp,sp,-48
   139ee:	c85a                	sw	s6,16(sp)
   139f0:	d606                	sw	ra,44(sp)
   139f2:	01279713          	sll	a4,a5,0x12
   139f6:	8b32                	mv	s6,a2
   139f8:	08075b63          	bgez	a4,13a8e <__sprint_r.part.0+0xa4>
   139fc:	461c                	lw	a5,8(a2)
   139fe:	d04a                	sw	s2,32(sp)
   13a00:	ce4e                	sw	s3,28(sp)
   13a02:	ca56                	sw	s5,20(sp)
   13a04:	c65e                	sw	s7,12(sp)
   13a06:	892e                	mv	s2,a1
   13a08:	00062b83          	lw	s7,0(a2)
   13a0c:	89aa                	mv	s3,a0
   13a0e:	5afd                	li	s5,-1
   13a10:	cbad                	beqz	a5,13a82 <__sprint_r.part.0+0x98>
   13a12:	d422                	sw	s0,40(sp)
   13a14:	d226                	sw	s1,36(sp)
   13a16:	cc52                	sw	s4,24(sp)
   13a18:	c462                	sw	s8,8(sp)
   13a1a:	004bac03          	lw	s8,4(s7)
   13a1e:	000ba403          	lw	s0,0(s7)
   13a22:	002c5a13          	srl	s4,s8,0x2
   13a26:	040a0263          	beqz	s4,13a6a <__sprint_r.part.0+0x80>
   13a2a:	4481                	li	s1,0
   13a2c:	a021                	j	13a34 <__sprint_r.part.0+0x4a>
   13a2e:	0411                	add	s0,s0,4
   13a30:	029a0b63          	beq	s4,s1,13a66 <__sprint_r.part.0+0x7c>
   13a34:	400c                	lw	a1,0(s0)
   13a36:	864a                	mv	a2,s2
   13a38:	854e                	mv	a0,s3
   13a3a:	2b3010ef          	jal	154ec <_fputwc_r>
   13a3e:	0485                	add	s1,s1,1
   13a40:	ff5517e3          	bne	a0,s5,13a2e <__sprint_r.part.0+0x44>
   13a44:	5422                	lw	s0,40(sp)
   13a46:	5492                	lw	s1,36(sp)
   13a48:	5902                	lw	s2,32(sp)
   13a4a:	49f2                	lw	s3,28(sp)
   13a4c:	4a62                	lw	s4,24(sp)
   13a4e:	4ad2                	lw	s5,20(sp)
   13a50:	4bb2                	lw	s7,12(sp)
   13a52:	4c22                	lw	s8,8(sp)
   13a54:	557d                	li	a0,-1
   13a56:	50b2                	lw	ra,44(sp)
   13a58:	000b2423          	sw	zero,8(s6)
   13a5c:	000b2223          	sw	zero,4(s6)
   13a60:	4b42                	lw	s6,16(sp)
   13a62:	6145                	add	sp,sp,48
   13a64:	8082                	ret
   13a66:	008b2783          	lw	a5,8(s6)
   13a6a:	ffcc7c13          	and	s8,s8,-4
   13a6e:	418787b3          	sub	a5,a5,s8
   13a72:	00fb2423          	sw	a5,8(s6)
   13a76:	0ba1                	add	s7,s7,8
   13a78:	f3cd                	bnez	a5,13a1a <__sprint_r.part.0+0x30>
   13a7a:	5422                	lw	s0,40(sp)
   13a7c:	5492                	lw	s1,36(sp)
   13a7e:	4a62                	lw	s4,24(sp)
   13a80:	4c22                	lw	s8,8(sp)
   13a82:	5902                	lw	s2,32(sp)
   13a84:	49f2                	lw	s3,28(sp)
   13a86:	4ad2                	lw	s5,20(sp)
   13a88:	4bb2                	lw	s7,12(sp)
   13a8a:	4501                	li	a0,0
   13a8c:	b7e9                	j	13a56 <__sprint_r.part.0+0x6c>
   13a8e:	552010ef          	jal	14fe0 <__sfvwrite_r>
   13a92:	50b2                	lw	ra,44(sp)
   13a94:	000b2423          	sw	zero,8(s6)
   13a98:	000b2223          	sw	zero,4(s6)
   13a9c:	4b42                	lw	s6,16(sp)
   13a9e:	6145                	add	sp,sp,48
   13aa0:	8082                	ret

00013aa2 <__sprint_r>:
   13aa2:	4618                	lw	a4,8(a2)
   13aa4:	c311                	beqz	a4,13aa8 <__sprint_r+0x6>
   13aa6:	b791                	j	139ea <__sprint_r.part.0>
   13aa8:	00062223          	sw	zero,4(a2)
   13aac:	4501                	li	a0,0
   13aae:	8082                	ret

00013ab0 <_vfiprintf_r>:
   13ab0:	714d                	add	sp,sp,-336
   13ab2:	14912223          	sw	s1,324(sp)
   13ab6:	13412c23          	sw	s4,312(sp)
   13aba:	13912223          	sw	s9,292(sp)
   13abe:	84aa                	mv	s1,a0
   13ac0:	8a2e                	mv	s4,a1
   13ac2:	8cb2                	mv	s9,a2
   13ac4:	4581                	li	a1,0
   13ac6:	4621                	li	a2,8
   13ac8:	0888                	add	a0,sp,80
   13aca:	13612823          	sw	s6,304(sp)
   13ace:	14112623          	sw	ra,332(sp)
   13ad2:	8b36                	mv	s6,a3
   13ad4:	b8cfd0ef          	jal	10e60 <memset>
   13ad8:	c481                	beqz	s1,13ae0 <_vfiprintf_r+0x30>
   13ada:	58dc                	lw	a5,52(s1)
   13adc:	6c0786e3          	beqz	a5,149a8 <_vfiprintf_r+0xef8>
   13ae0:	064a2703          	lw	a4,100(s4)
   13ae4:	00ca1783          	lh	a5,12(s4)
   13ae8:	8b05                	and	a4,a4,1
   13aea:	e709                	bnez	a4,13af4 <_vfiprintf_r+0x44>
   13aec:	2007f713          	and	a4,a5,512
   13af0:	36070de3          	beqz	a4,1466a <_vfiprintf_r+0xbba>
   13af4:	01279713          	sll	a4,a5,0x12
   13af8:	00074f63          	bltz	a4,13b16 <_vfiprintf_r+0x66>
   13afc:	064a2703          	lw	a4,100(s4)
   13b00:	6609                	lui	a2,0x2
   13b02:	76f9                	lui	a3,0xffffe
   13b04:	8fd1                	or	a5,a5,a2
   13b06:	16fd                	add	a3,a3,-1 # ffffdfff <__BSS_END__+0xfffe0263>
   13b08:	07c2                	sll	a5,a5,0x10
   13b0a:	87c1                	sra	a5,a5,0x10
   13b0c:	8f75                	and	a4,a4,a3
   13b0e:	00fa1623          	sh	a5,12(s4)
   13b12:	06ea2223          	sw	a4,100(s4)
   13b16:	0087f713          	and	a4,a5,8
   13b1a:	1e070e63          	beqz	a4,13d16 <_vfiprintf_r+0x266>
   13b1e:	010a2703          	lw	a4,16(s4)
   13b22:	1e070a63          	beqz	a4,13d16 <_vfiprintf_r+0x266>
   13b26:	01a7f713          	and	a4,a5,26
   13b2a:	46a9                	li	a3,10
   13b2c:	20d70263          	beq	a4,a3,13d30 <_vfiprintf_r+0x280>
   13b30:	13512a23          	sw	s5,308(sp)
   13b34:	06c10a93          	add	s5,sp,108
   13b38:	14812423          	sw	s0,328(sp)
   13b3c:	15212023          	sw	s2,320(sp)
   13b40:	13312e23          	sw	s3,316(sp)
   13b44:	13712623          	sw	s7,300(sp)
   13b48:	13812423          	sw	s8,296(sp)
   13b4c:	13a12023          	sw	s10,288(sp)
   13b50:	11b12e23          	sw	s11,284(sp)
   13b54:	d0d6                	sw	s5,96(sp)
   13b56:	d482                	sw	zero,104(sp)
   13b58:	d282                	sw	zero,100(sp)
   13b5a:	8456                	mv	s0,s5
   13b5c:	ca02                	sw	zero,20(sp)
   13b5e:	d602                	sw	zero,44(sp)
   13b60:	d802                	sw	zero,48(sp)
   13b62:	da02                	sw	zero,52(sp)
   13b64:	c602                	sw	zero,12(sp)
   13b66:	d3818913          	add	s2,gp,-712 # 1d548 <__global_locale>
   13b6a:	02500993          	li	s3,37
   13b6e:	00009c17          	auipc	s8,0x9
   13b72:	9c2c0c13          	add	s8,s8,-1598 # 1c530 <blanks.1+0x10>
   13b76:	00009b97          	auipc	s7,0x9
   13b7a:	b26b8b93          	add	s7,s7,-1242 # 1c69c <zeroes.0>
   13b7e:	8d66                	mv	s10,s9
   13b80:	8dea                	mv	s11,s10
   13b82:	0e492c83          	lw	s9,228(s2)
   13b86:	530020ef          	jal	160b6 <__locale_mb_cur_max>
   13b8a:	86aa                	mv	a3,a0
   13b8c:	0898                	add	a4,sp,80
   13b8e:	866e                	mv	a2,s11
   13b90:	00ac                	add	a1,sp,72
   13b92:	8526                	mv	a0,s1
   13b94:	9c82                	jalr	s9
   13b96:	24050d63          	beqz	a0,13df0 <_vfiprintf_r+0x340>
   13b9a:	24054363          	bltz	a0,13de0 <_vfiprintf_r+0x330>
   13b9e:	47a6                	lw	a5,72(sp)
   13ba0:	01378463          	beq	a5,s3,13ba8 <_vfiprintf_r+0xf8>
   13ba4:	9daa                	add	s11,s11,a0
   13ba6:	bff1                	j	13b82 <_vfiprintf_r+0xd2>
   13ba8:	8caa                	mv	s9,a0
   13baa:	41ad87b3          	sub	a5,s11,s10
   13bae:	25ad9663          	bne	s11,s10,13dfa <_vfiprintf_r+0x34a>
